
build/posix_demo:     file format elf64-x86-64


Disassembly of section .init:

0000000000002000 <_init>:
    2000:	f3 0f 1e fa          	endbr64 
    2004:	48 83 ec 08          	sub    $0x8,%rsp
    2008:	48 8b 05 d9 ef 02 00 	mov    0x2efd9(%rip),%rax        # 30fe8 <__gmon_start__>
    200f:	48 85 c0             	test   %rax,%rax
    2012:	74 02                	je     2016 <_init+0x16>
    2014:	ff d0                	callq  *%rax
    2016:	48 83 c4 08          	add    $0x8,%rsp
    201a:	c3                   	retq   

Disassembly of section .plt:

0000000000002020 <.plt>:
    2020:	ff 35 e2 ed 02 00    	pushq  0x2ede2(%rip)        # 30e08 <_GLOBAL_OFFSET_TABLE_+0x8>
    2026:	f2 ff 25 e3 ed 02 00 	bnd jmpq *0x2ede3(%rip)        # 30e10 <_GLOBAL_OFFSET_TABLE_+0x10>
    202d:	0f 1f 00             	nopl   (%rax)
    2030:	f3 0f 1e fa          	endbr64 
    2034:	68 00 00 00 00       	pushq  $0x0
    2039:	f2 e9 e1 ff ff ff    	bnd jmpq 2020 <.plt>
    203f:	90                   	nop
    2040:	f3 0f 1e fa          	endbr64 
    2044:	68 01 00 00 00       	pushq  $0x1
    2049:	f2 e9 d1 ff ff ff    	bnd jmpq 2020 <.plt>
    204f:	90                   	nop
    2050:	f3 0f 1e fa          	endbr64 
    2054:	68 02 00 00 00       	pushq  $0x2
    2059:	f2 e9 c1 ff ff ff    	bnd jmpq 2020 <.plt>
    205f:	90                   	nop
    2060:	f3 0f 1e fa          	endbr64 
    2064:	68 03 00 00 00       	pushq  $0x3
    2069:	f2 e9 b1 ff ff ff    	bnd jmpq 2020 <.plt>
    206f:	90                   	nop
    2070:	f3 0f 1e fa          	endbr64 
    2074:	68 04 00 00 00       	pushq  $0x4
    2079:	f2 e9 a1 ff ff ff    	bnd jmpq 2020 <.plt>
    207f:	90                   	nop
    2080:	f3 0f 1e fa          	endbr64 
    2084:	68 05 00 00 00       	pushq  $0x5
    2089:	f2 e9 91 ff ff ff    	bnd jmpq 2020 <.plt>
    208f:	90                   	nop
    2090:	f3 0f 1e fa          	endbr64 
    2094:	68 06 00 00 00       	pushq  $0x6
    2099:	f2 e9 81 ff ff ff    	bnd jmpq 2020 <.plt>
    209f:	90                   	nop
    20a0:	f3 0f 1e fa          	endbr64 
    20a4:	68 07 00 00 00       	pushq  $0x7
    20a9:	f2 e9 71 ff ff ff    	bnd jmpq 2020 <.plt>
    20af:	90                   	nop
    20b0:	f3 0f 1e fa          	endbr64 
    20b4:	68 08 00 00 00       	pushq  $0x8
    20b9:	f2 e9 61 ff ff ff    	bnd jmpq 2020 <.plt>
    20bf:	90                   	nop
    20c0:	f3 0f 1e fa          	endbr64 
    20c4:	68 09 00 00 00       	pushq  $0x9
    20c9:	f2 e9 51 ff ff ff    	bnd jmpq 2020 <.plt>
    20cf:	90                   	nop
    20d0:	f3 0f 1e fa          	endbr64 
    20d4:	68 0a 00 00 00       	pushq  $0xa
    20d9:	f2 e9 41 ff ff ff    	bnd jmpq 2020 <.plt>
    20df:	90                   	nop
    20e0:	f3 0f 1e fa          	endbr64 
    20e4:	68 0b 00 00 00       	pushq  $0xb
    20e9:	f2 e9 31 ff ff ff    	bnd jmpq 2020 <.plt>
    20ef:	90                   	nop
    20f0:	f3 0f 1e fa          	endbr64 
    20f4:	68 0c 00 00 00       	pushq  $0xc
    20f9:	f2 e9 21 ff ff ff    	bnd jmpq 2020 <.plt>
    20ff:	90                   	nop
    2100:	f3 0f 1e fa          	endbr64 
    2104:	68 0d 00 00 00       	pushq  $0xd
    2109:	f2 e9 11 ff ff ff    	bnd jmpq 2020 <.plt>
    210f:	90                   	nop
    2110:	f3 0f 1e fa          	endbr64 
    2114:	68 0e 00 00 00       	pushq  $0xe
    2119:	f2 e9 01 ff ff ff    	bnd jmpq 2020 <.plt>
    211f:	90                   	nop
    2120:	f3 0f 1e fa          	endbr64 
    2124:	68 0f 00 00 00       	pushq  $0xf
    2129:	f2 e9 f1 fe ff ff    	bnd jmpq 2020 <.plt>
    212f:	90                   	nop
    2130:	f3 0f 1e fa          	endbr64 
    2134:	68 10 00 00 00       	pushq  $0x10
    2139:	f2 e9 e1 fe ff ff    	bnd jmpq 2020 <.plt>
    213f:	90                   	nop
    2140:	f3 0f 1e fa          	endbr64 
    2144:	68 11 00 00 00       	pushq  $0x11
    2149:	f2 e9 d1 fe ff ff    	bnd jmpq 2020 <.plt>
    214f:	90                   	nop
    2150:	f3 0f 1e fa          	endbr64 
    2154:	68 12 00 00 00       	pushq  $0x12
    2159:	f2 e9 c1 fe ff ff    	bnd jmpq 2020 <.plt>
    215f:	90                   	nop
    2160:	f3 0f 1e fa          	endbr64 
    2164:	68 13 00 00 00       	pushq  $0x13
    2169:	f2 e9 b1 fe ff ff    	bnd jmpq 2020 <.plt>
    216f:	90                   	nop
    2170:	f3 0f 1e fa          	endbr64 
    2174:	68 14 00 00 00       	pushq  $0x14
    2179:	f2 e9 a1 fe ff ff    	bnd jmpq 2020 <.plt>
    217f:	90                   	nop
    2180:	f3 0f 1e fa          	endbr64 
    2184:	68 15 00 00 00       	pushq  $0x15
    2189:	f2 e9 91 fe ff ff    	bnd jmpq 2020 <.plt>
    218f:	90                   	nop
    2190:	f3 0f 1e fa          	endbr64 
    2194:	68 16 00 00 00       	pushq  $0x16
    2199:	f2 e9 81 fe ff ff    	bnd jmpq 2020 <.plt>
    219f:	90                   	nop
    21a0:	f3 0f 1e fa          	endbr64 
    21a4:	68 17 00 00 00       	pushq  $0x17
    21a9:	f2 e9 71 fe ff ff    	bnd jmpq 2020 <.plt>
    21af:	90                   	nop
    21b0:	f3 0f 1e fa          	endbr64 
    21b4:	68 18 00 00 00       	pushq  $0x18
    21b9:	f2 e9 61 fe ff ff    	bnd jmpq 2020 <.plt>
    21bf:	90                   	nop
    21c0:	f3 0f 1e fa          	endbr64 
    21c4:	68 19 00 00 00       	pushq  $0x19
    21c9:	f2 e9 51 fe ff ff    	bnd jmpq 2020 <.plt>
    21cf:	90                   	nop
    21d0:	f3 0f 1e fa          	endbr64 
    21d4:	68 1a 00 00 00       	pushq  $0x1a
    21d9:	f2 e9 41 fe ff ff    	bnd jmpq 2020 <.plt>
    21df:	90                   	nop
    21e0:	f3 0f 1e fa          	endbr64 
    21e4:	68 1b 00 00 00       	pushq  $0x1b
    21e9:	f2 e9 31 fe ff ff    	bnd jmpq 2020 <.plt>
    21ef:	90                   	nop
    21f0:	f3 0f 1e fa          	endbr64 
    21f4:	68 1c 00 00 00       	pushq  $0x1c
    21f9:	f2 e9 21 fe ff ff    	bnd jmpq 2020 <.plt>
    21ff:	90                   	nop
    2200:	f3 0f 1e fa          	endbr64 
    2204:	68 1d 00 00 00       	pushq  $0x1d
    2209:	f2 e9 11 fe ff ff    	bnd jmpq 2020 <.plt>
    220f:	90                   	nop
    2210:	f3 0f 1e fa          	endbr64 
    2214:	68 1e 00 00 00       	pushq  $0x1e
    2219:	f2 e9 01 fe ff ff    	bnd jmpq 2020 <.plt>
    221f:	90                   	nop
    2220:	f3 0f 1e fa          	endbr64 
    2224:	68 1f 00 00 00       	pushq  $0x1f
    2229:	f2 e9 f1 fd ff ff    	bnd jmpq 2020 <.plt>
    222f:	90                   	nop
    2230:	f3 0f 1e fa          	endbr64 
    2234:	68 20 00 00 00       	pushq  $0x20
    2239:	f2 e9 e1 fd ff ff    	bnd jmpq 2020 <.plt>
    223f:	90                   	nop
    2240:	f3 0f 1e fa          	endbr64 
    2244:	68 21 00 00 00       	pushq  $0x21
    2249:	f2 e9 d1 fd ff ff    	bnd jmpq 2020 <.plt>
    224f:	90                   	nop
    2250:	f3 0f 1e fa          	endbr64 
    2254:	68 22 00 00 00       	pushq  $0x22
    2259:	f2 e9 c1 fd ff ff    	bnd jmpq 2020 <.plt>
    225f:	90                   	nop
    2260:	f3 0f 1e fa          	endbr64 
    2264:	68 23 00 00 00       	pushq  $0x23
    2269:	f2 e9 b1 fd ff ff    	bnd jmpq 2020 <.plt>
    226f:	90                   	nop
    2270:	f3 0f 1e fa          	endbr64 
    2274:	68 24 00 00 00       	pushq  $0x24
    2279:	f2 e9 a1 fd ff ff    	bnd jmpq 2020 <.plt>
    227f:	90                   	nop
    2280:	f3 0f 1e fa          	endbr64 
    2284:	68 25 00 00 00       	pushq  $0x25
    2289:	f2 e9 91 fd ff ff    	bnd jmpq 2020 <.plt>
    228f:	90                   	nop
    2290:	f3 0f 1e fa          	endbr64 
    2294:	68 26 00 00 00       	pushq  $0x26
    2299:	f2 e9 81 fd ff ff    	bnd jmpq 2020 <.plt>
    229f:	90                   	nop
    22a0:	f3 0f 1e fa          	endbr64 
    22a4:	68 27 00 00 00       	pushq  $0x27
    22a9:	f2 e9 71 fd ff ff    	bnd jmpq 2020 <.plt>
    22af:	90                   	nop
    22b0:	f3 0f 1e fa          	endbr64 
    22b4:	68 28 00 00 00       	pushq  $0x28
    22b9:	f2 e9 61 fd ff ff    	bnd jmpq 2020 <.plt>
    22bf:	90                   	nop
    22c0:	f3 0f 1e fa          	endbr64 
    22c4:	68 29 00 00 00       	pushq  $0x29
    22c9:	f2 e9 51 fd ff ff    	bnd jmpq 2020 <.plt>
    22cf:	90                   	nop
    22d0:	f3 0f 1e fa          	endbr64 
    22d4:	68 2a 00 00 00       	pushq  $0x2a
    22d9:	f2 e9 41 fd ff ff    	bnd jmpq 2020 <.plt>
    22df:	90                   	nop
    22e0:	f3 0f 1e fa          	endbr64 
    22e4:	68 2b 00 00 00       	pushq  $0x2b
    22e9:	f2 e9 31 fd ff ff    	bnd jmpq 2020 <.plt>
    22ef:	90                   	nop
    22f0:	f3 0f 1e fa          	endbr64 
    22f4:	68 2c 00 00 00       	pushq  $0x2c
    22f9:	f2 e9 21 fd ff ff    	bnd jmpq 2020 <.plt>
    22ff:	90                   	nop
    2300:	f3 0f 1e fa          	endbr64 
    2304:	68 2d 00 00 00       	pushq  $0x2d
    2309:	f2 e9 11 fd ff ff    	bnd jmpq 2020 <.plt>
    230f:	90                   	nop
    2310:	f3 0f 1e fa          	endbr64 
    2314:	68 2e 00 00 00       	pushq  $0x2e
    2319:	f2 e9 01 fd ff ff    	bnd jmpq 2020 <.plt>
    231f:	90                   	nop
    2320:	f3 0f 1e fa          	endbr64 
    2324:	68 2f 00 00 00       	pushq  $0x2f
    2329:	f2 e9 f1 fc ff ff    	bnd jmpq 2020 <.plt>
    232f:	90                   	nop
    2330:	f3 0f 1e fa          	endbr64 
    2334:	68 30 00 00 00       	pushq  $0x30
    2339:	f2 e9 e1 fc ff ff    	bnd jmpq 2020 <.plt>
    233f:	90                   	nop
    2340:	f3 0f 1e fa          	endbr64 
    2344:	68 31 00 00 00       	pushq  $0x31
    2349:	f2 e9 d1 fc ff ff    	bnd jmpq 2020 <.plt>
    234f:	90                   	nop
    2350:	f3 0f 1e fa          	endbr64 
    2354:	68 32 00 00 00       	pushq  $0x32
    2359:	f2 e9 c1 fc ff ff    	bnd jmpq 2020 <.plt>
    235f:	90                   	nop
    2360:	f3 0f 1e fa          	endbr64 
    2364:	68 33 00 00 00       	pushq  $0x33
    2369:	f2 e9 b1 fc ff ff    	bnd jmpq 2020 <.plt>
    236f:	90                   	nop
    2370:	f3 0f 1e fa          	endbr64 
    2374:	68 34 00 00 00       	pushq  $0x34
    2379:	f2 e9 a1 fc ff ff    	bnd jmpq 2020 <.plt>
    237f:	90                   	nop
    2380:	f3 0f 1e fa          	endbr64 
    2384:	68 35 00 00 00       	pushq  $0x35
    2389:	f2 e9 91 fc ff ff    	bnd jmpq 2020 <.plt>
    238f:	90                   	nop
    2390:	f3 0f 1e fa          	endbr64 
    2394:	68 36 00 00 00       	pushq  $0x36
    2399:	f2 e9 81 fc ff ff    	bnd jmpq 2020 <.plt>
    239f:	90                   	nop
    23a0:	f3 0f 1e fa          	endbr64 
    23a4:	68 37 00 00 00       	pushq  $0x37
    23a9:	f2 e9 71 fc ff ff    	bnd jmpq 2020 <.plt>
    23af:	90                   	nop

Disassembly of section .plt.got:

00000000000023b0 <__cxa_finalize@plt>:
    23b0:	f3 0f 1e fa          	endbr64 
    23b4:	f2 ff 25 3d ec 02 00 	bnd jmpq *0x2ec3d(%rip)        # 30ff8 <__cxa_finalize@GLIBC_2.2.5>
    23bb:	0f 1f 44 00 00       	nopl   0x0(%rax,%rax,1)

Disassembly of section .plt.sec:

00000000000023c0 <free@plt>:
    23c0:	f3 0f 1e fa          	endbr64 
    23c4:	f2 ff 25 4d ea 02 00 	bnd jmpq *0x2ea4d(%rip)        # 30e18 <free@GLIBC_2.2.5>
    23cb:	0f 1f 44 00 00       	nopl   0x0(%rax,%rax,1)

00000000000023d0 <pthread_create@plt>:
    23d0:	f3 0f 1e fa          	endbr64 
    23d4:	f2 ff 25 45 ea 02 00 	bnd jmpq *0x2ea45(%rip)        # 30e20 <pthread_create@GLIBC_2.2.5>
    23db:	0f 1f 44 00 00       	nopl   0x0(%rax,%rax,1)

00000000000023e0 <pthread_sigmask@plt>:
    23e0:	f3 0f 1e fa          	endbr64 
    23e4:	f2 ff 25 3d ea 02 00 	bnd jmpq *0x2ea3d(%rip)        # 30e28 <pthread_sigmask@GLIBC_2.2.5>
    23eb:	0f 1f 44 00 00       	nopl   0x0(%rax,%rax,1)

00000000000023f0 <abort@plt>:
    23f0:	f3 0f 1e fa          	endbr64 
    23f4:	f2 ff 25 35 ea 02 00 	bnd jmpq *0x2ea35(%rip)        # 30e30 <abort@GLIBC_2.2.5>
    23fb:	0f 1f 44 00 00       	nopl   0x0(%rax,%rax,1)

0000000000002400 <__errno_location@plt>:
    2400:	f3 0f 1e fa          	endbr64 
    2404:	f2 ff 25 2d ea 02 00 	bnd jmpq *0x2ea2d(%rip)        # 30e38 <__errno_location@GLIBC_2.2.5>
    240b:	0f 1f 44 00 00       	nopl   0x0(%rax,%rax,1)

0000000000002410 <strncmp@plt>:
    2410:	f3 0f 1e fa          	endbr64 
    2414:	f2 ff 25 25 ea 02 00 	bnd jmpq *0x2ea25(%rip)        # 30e40 <strncmp@GLIBC_2.2.5>
    241b:	0f 1f 44 00 00       	nopl   0x0(%rax,%rax,1)

0000000000002420 <puts@plt>:
    2420:	f3 0f 1e fa          	endbr64 
    2424:	f2 ff 25 1d ea 02 00 	bnd jmpq *0x2ea1d(%rip)        # 30e48 <puts@GLIBC_2.2.5>
    242b:	0f 1f 44 00 00       	nopl   0x0(%rax,%rax,1)

0000000000002430 <pthread_cancel@plt>:
    2430:	f3 0f 1e fa          	endbr64 
    2434:	f2 ff 25 15 ea 02 00 	bnd jmpq *0x2ea15(%rip)        # 30e50 <pthread_cancel@GLIBC_2.2.5>
    243b:	0f 1f 44 00 00       	nopl   0x0(%rax,%rax,1)

0000000000002440 <pthread_attr_setstack@plt>:
    2440:	f3 0f 1e fa          	endbr64 
    2444:	f2 ff 25 0d ea 02 00 	bnd jmpq *0x2ea0d(%rip)        # 30e58 <pthread_attr_setstack@GLIBC_2.2.5>
    244b:	0f 1f 44 00 00       	nopl   0x0(%rax,%rax,1)

0000000000002450 <sigaction@plt>:
    2450:	f3 0f 1e fa          	endbr64 
    2454:	f2 ff 25 05 ea 02 00 	bnd jmpq *0x2ea05(%rip)        # 30e60 <sigaction@GLIBC_2.2.5>
    245b:	0f 1f 44 00 00       	nopl   0x0(%rax,%rax,1)

0000000000002460 <clock_gettime@plt>:
    2460:	f3 0f 1e fa          	endbr64 
    2464:	f2 ff 25 fd e9 02 00 	bnd jmpq *0x2e9fd(%rip)        # 30e68 <clock_gettime@GLIBC_2.17>
    246b:	0f 1f 44 00 00       	nopl   0x0(%rax,%rax,1)

0000000000002470 <pthread_kill@plt>:
    2470:	f3 0f 1e fa          	endbr64 
    2474:	f2 ff 25 f5 e9 02 00 	bnd jmpq *0x2e9f5(%rip)        # 30e70 <pthread_kill@GLIBC_2.2.5>
    247b:	0f 1f 44 00 00       	nopl   0x0(%rax,%rax,1)

0000000000002480 <pthread_cond_wait@plt>:
    2480:	f3 0f 1e fa          	endbr64 
    2484:	f2 ff 25 ed e9 02 00 	bnd jmpq *0x2e9ed(%rip)        # 30e78 <pthread_cond_wait@GLIBC_2.3.2>
    248b:	0f 1f 44 00 00       	nopl   0x0(%rax,%rax,1)

0000000000002490 <pthread_once@plt>:
    2490:	f3 0f 1e fa          	endbr64 
    2494:	f2 ff 25 e5 e9 02 00 	bnd jmpq *0x2e9e5(%rip)        # 30e80 <pthread_once@GLIBC_2.2.5>
    249b:	0f 1f 44 00 00       	nopl   0x0(%rax,%rax,1)

00000000000024a0 <fclose@plt>:
    24a0:	f3 0f 1e fa          	endbr64 
    24a4:	f2 ff 25 dd e9 02 00 	bnd jmpq *0x2e9dd(%rip)        # 30e88 <fclose@GLIBC_2.2.5>
    24ab:	0f 1f 44 00 00       	nopl   0x0(%rax,%rax,1)

00000000000024b0 <strlen@plt>:
    24b0:	f3 0f 1e fa          	endbr64 
    24b4:	f2 ff 25 d5 e9 02 00 	bnd jmpq *0x2e9d5(%rip)        # 30e90 <strlen@GLIBC_2.2.5>
    24bb:	0f 1f 44 00 00       	nopl   0x0(%rax,%rax,1)

00000000000024c0 <chdir@plt>:
    24c0:	f3 0f 1e fa          	endbr64 
    24c4:	f2 ff 25 cd e9 02 00 	bnd jmpq *0x2e9cd(%rip)        # 30e98 <chdir@GLIBC_2.2.5>
    24cb:	0f 1f 44 00 00       	nopl   0x0(%rax,%rax,1)

00000000000024d0 <__stack_chk_fail@plt>:
    24d0:	f3 0f 1e fa          	endbr64 
    24d4:	f2 ff 25 c5 e9 02 00 	bnd jmpq *0x2e9c5(%rip)        # 30ea0 <__stack_chk_fail@GLIBC_2.4>
    24db:	0f 1f 44 00 00       	nopl   0x0(%rax,%rax,1)

00000000000024e0 <printf@plt>:
    24e0:	f3 0f 1e fa          	endbr64 
    24e4:	f2 ff 25 bd e9 02 00 	bnd jmpq *0x2e9bd(%rip)        # 30ea8 <printf@GLIBC_2.2.5>
    24eb:	0f 1f 44 00 00       	nopl   0x0(%rax,%rax,1)

00000000000024f0 <pthread_mutex_destroy@plt>:
    24f0:	f3 0f 1e fa          	endbr64 
    24f4:	f2 ff 25 b5 e9 02 00 	bnd jmpq *0x2e9b5(%rip)        # 30eb0 <pthread_mutex_destroy@GLIBC_2.2.5>
    24fb:	0f 1f 44 00 00       	nopl   0x0(%rax,%rax,1)

0000000000002500 <nanosleep@plt>:
    2500:	f3 0f 1e fa          	endbr64 
    2504:	f2 ff 25 ad e9 02 00 	bnd jmpq *0x2e9ad(%rip)        # 30eb8 <nanosleep@GLIBC_2.2.5>
    250b:	0f 1f 44 00 00       	nopl   0x0(%rax,%rax,1)

0000000000002510 <memset@plt>:
    2510:	f3 0f 1e fa          	endbr64 
    2514:	f2 ff 25 a5 e9 02 00 	bnd jmpq *0x2e9a5(%rip)        # 30ec0 <memset@GLIBC_2.2.5>
    251b:	0f 1f 44 00 00       	nopl   0x0(%rax,%rax,1)

0000000000002520 <memcmp@plt>:
    2520:	f3 0f 1e fa          	endbr64 
    2524:	f2 ff 25 9d e9 02 00 	bnd jmpq *0x2e99d(%rip)        # 30ec8 <memcmp@GLIBC_2.2.5>
    252b:	0f 1f 44 00 00       	nopl   0x0(%rax,%rax,1)

0000000000002530 <pthread_attr_init@plt>:
    2530:	f3 0f 1e fa          	endbr64 
    2534:	f2 ff 25 95 e9 02 00 	bnd jmpq *0x2e995(%rip)        # 30ed0 <pthread_attr_init@GLIBC_2.2.5>
    253b:	0f 1f 44 00 00       	nopl   0x0(%rax,%rax,1)

0000000000002540 <pthread_cond_signal@plt>:
    2540:	f3 0f 1e fa          	endbr64 
    2544:	f2 ff 25 8d e9 02 00 	bnd jmpq *0x2e98d(%rip)        # 30ed8 <pthread_cond_signal@GLIBC_2.3.2>
    254b:	0f 1f 44 00 00       	nopl   0x0(%rax,%rax,1)

0000000000002550 <strcmp@plt>:
    2550:	f3 0f 1e fa          	endbr64 
    2554:	f2 ff 25 85 e9 02 00 	bnd jmpq *0x2e985(%rip)        # 30ee0 <strcmp@GLIBC_2.2.5>
    255b:	0f 1f 44 00 00       	nopl   0x0(%rax,%rax,1)

0000000000002560 <getchar@plt>:
    2560:	f3 0f 1e fa          	endbr64 
    2564:	f2 ff 25 7d e9 02 00 	bnd jmpq *0x2e97d(%rip)        # 30ee8 <getchar@GLIBC_2.2.5>
    256b:	0f 1f 44 00 00       	nopl   0x0(%rax,%rax,1)

0000000000002570 <signal@plt>:
    2570:	f3 0f 1e fa          	endbr64 
    2574:	f2 ff 25 75 e9 02 00 	bnd jmpq *0x2e975(%rip)        # 30ef0 <signal@GLIBC_2.2.5>
    257b:	0f 1f 44 00 00       	nopl   0x0(%rax,%rax,1)

0000000000002580 <fprintf@plt>:
    2580:	f3 0f 1e fa          	endbr64 
    2584:	f2 ff 25 6d e9 02 00 	bnd jmpq *0x2e96d(%rip)        # 30ef8 <fprintf@GLIBC_2.2.5>
    258b:	0f 1f 44 00 00       	nopl   0x0(%rax,%rax,1)

0000000000002590 <sigemptyset@plt>:
    2590:	f3 0f 1e fa          	endbr64 
    2594:	f2 ff 25 65 e9 02 00 	bnd jmpq *0x2e965(%rip)        # 30f00 <sigemptyset@GLIBC_2.2.5>
    259b:	0f 1f 44 00 00       	nopl   0x0(%rax,%rax,1)

00000000000025a0 <sigfillset@plt>:
    25a0:	f3 0f 1e fa          	endbr64 
    25a4:	f2 ff 25 5d e9 02 00 	bnd jmpq *0x2e95d(%rip)        # 30f08 <sigfillset@GLIBC_2.2.5>
    25ab:	0f 1f 44 00 00       	nopl   0x0(%rax,%rax,1)

00000000000025b0 <memcpy@plt>:
    25b0:	f3 0f 1e fa          	endbr64 
    25b4:	f2 ff 25 55 e9 02 00 	bnd jmpq *0x2e955(%rip)        # 30f10 <memcpy@GLIBC_2.14>
    25bb:	0f 1f 44 00 00       	nopl   0x0(%rax,%rax,1)

00000000000025c0 <pthread_cond_init@plt>:
    25c0:	f3 0f 1e fa          	endbr64 
    25c4:	f2 ff 25 4d e9 02 00 	bnd jmpq *0x2e94d(%rip)        # 30f18 <pthread_cond_init@GLIBC_2.3.2>
    25cb:	0f 1f 44 00 00       	nopl   0x0(%rax,%rax,1)

00000000000025d0 <pthread_mutex_unlock@plt>:
    25d0:	f3 0f 1e fa          	endbr64 
    25d4:	f2 ff 25 45 e9 02 00 	bnd jmpq *0x2e945(%rip)        # 30f20 <pthread_mutex_unlock@GLIBC_2.2.5>
    25db:	0f 1f 44 00 00       	nopl   0x0(%rax,%rax,1)

00000000000025e0 <pthread_exit@plt>:
    25e0:	f3 0f 1e fa          	endbr64 
    25e4:	f2 ff 25 3d e9 02 00 	bnd jmpq *0x2e93d(%rip)        # 30f28 <pthread_exit@GLIBC_2.2.5>
    25eb:	0f 1f 44 00 00       	nopl   0x0(%rax,%rax,1)

00000000000025f0 <malloc@plt>:
    25f0:	f3 0f 1e fa          	endbr64 
    25f4:	f2 ff 25 35 e9 02 00 	bnd jmpq *0x2e935(%rip)        # 30f30 <malloc@GLIBC_2.2.5>
    25fb:	0f 1f 44 00 00       	nopl   0x0(%rax,%rax,1)

0000000000002600 <vprintf@plt>:
    2600:	f3 0f 1e fa          	endbr64 
    2604:	f2 ff 25 2d e9 02 00 	bnd jmpq *0x2e92d(%rip)        # 30f38 <vprintf@GLIBC_2.2.5>
    260b:	0f 1f 44 00 00       	nopl   0x0(%rax,%rax,1)

0000000000002610 <setitimer@plt>:
    2610:	f3 0f 1e fa          	endbr64 
    2614:	f2 ff 25 25 e9 02 00 	bnd jmpq *0x2e925(%rip)        # 30f40 <setitimer@GLIBC_2.2.5>
    261b:	0f 1f 44 00 00       	nopl   0x0(%rax,%rax,1)

0000000000002620 <pthread_self@plt>:
    2620:	f3 0f 1e fa          	endbr64 
    2624:	f2 ff 25 1d e9 02 00 	bnd jmpq *0x2e91d(%rip)        # 30f48 <pthread_self@GLIBC_2.2.5>
    262b:	0f 1f 44 00 00       	nopl   0x0(%rax,%rax,1)

0000000000002630 <pthread_cond_timedwait@plt>:
    2630:	f3 0f 1e fa          	endbr64 
    2634:	f2 ff 25 15 e9 02 00 	bnd jmpq *0x2e915(%rip)        # 30f50 <pthread_cond_timedwait@GLIBC_2.3.2>
    263b:	0f 1f 44 00 00       	nopl   0x0(%rax,%rax,1)

0000000000002640 <pthread_cond_destroy@plt>:
    2640:	f3 0f 1e fa          	endbr64 
    2644:	f2 ff 25 0d e9 02 00 	bnd jmpq *0x2e90d(%rip)        # 30f58 <pthread_cond_destroy@GLIBC_2.3.2>
    264b:	0f 1f 44 00 00       	nopl   0x0(%rax,%rax,1)

0000000000002650 <times@plt>:
    2650:	f3 0f 1e fa          	endbr64 
    2654:	f2 ff 25 05 e9 02 00 	bnd jmpq *0x2e905(%rip)        # 30f60 <times@GLIBC_2.2.5>
    265b:	0f 1f 44 00 00       	nopl   0x0(%rax,%rax,1)

0000000000002660 <fopen@plt>:
    2660:	f3 0f 1e fa          	endbr64 
    2664:	f2 ff 25 fd e8 02 00 	bnd jmpq *0x2e8fd(%rip)        # 30f68 <fopen@GLIBC_2.2.5>
    266b:	0f 1f 44 00 00       	nopl   0x0(%rax,%rax,1)

0000000000002670 <sigdelset@plt>:
    2670:	f3 0f 1e fa          	endbr64 
    2674:	f2 ff 25 f5 e8 02 00 	bnd jmpq *0x2e8f5(%rip)        # 30f70 <sigdelset@GLIBC_2.2.5>
    267b:	0f 1f 44 00 00       	nopl   0x0(%rax,%rax,1)

0000000000002680 <getitimer@plt>:
    2680:	f3 0f 1e fa          	endbr64 
    2684:	f2 ff 25 ed e8 02 00 	bnd jmpq *0x2e8ed(%rip)        # 30f78 <getitimer@GLIBC_2.2.5>
    268b:	0f 1f 44 00 00       	nopl   0x0(%rax,%rax,1)

0000000000002690 <pthread_join@plt>:
    2690:	f3 0f 1e fa          	endbr64 
    2694:	f2 ff 25 e5 e8 02 00 	bnd jmpq *0x2e8e5(%rip)        # 30f80 <pthread_join@GLIBC_2.2.5>
    269b:	0f 1f 44 00 00       	nopl   0x0(%rax,%rax,1)

00000000000026a0 <sigwait@plt>:
    26a0:	f3 0f 1e fa          	endbr64 
    26a4:	f2 ff 25 dd e8 02 00 	bnd jmpq *0x2e8dd(%rip)        # 30f88 <sigwait@GLIBC_2.2.5>
    26ab:	0f 1f 44 00 00       	nopl   0x0(%rax,%rax,1)

00000000000026b0 <sprintf@plt>:
    26b0:	f3 0f 1e fa          	endbr64 
    26b4:	f2 ff 25 d5 e8 02 00 	bnd jmpq *0x2e8d5(%rip)        # 30f90 <sprintf@GLIBC_2.2.5>
    26bb:	0f 1f 44 00 00       	nopl   0x0(%rax,%rax,1)

00000000000026c0 <exit@plt>:
    26c0:	f3 0f 1e fa          	endbr64 
    26c4:	f2 ff 25 cd e8 02 00 	bnd jmpq *0x2e8cd(%rip)        # 30f98 <exit@GLIBC_2.2.5>
    26cb:	0f 1f 44 00 00       	nopl   0x0(%rax,%rax,1)

00000000000026d0 <fwrite@plt>:
    26d0:	f3 0f 1e fa          	endbr64 
    26d4:	f2 ff 25 c5 e8 02 00 	bnd jmpq *0x2e8c5(%rip)        # 30fa0 <fwrite@GLIBC_2.2.5>
    26db:	0f 1f 44 00 00       	nopl   0x0(%rax,%rax,1)

00000000000026e0 <strerror@plt>:
    26e0:	f3 0f 1e fa          	endbr64 
    26e4:	f2 ff 25 bd e8 02 00 	bnd jmpq *0x2e8bd(%rip)        # 30fa8 <strerror@GLIBC_2.2.5>
    26eb:	0f 1f 44 00 00       	nopl   0x0(%rax,%rax,1)

00000000000026f0 <pthread_mutex_init@plt>:
    26f0:	f3 0f 1e fa          	endbr64 
    26f4:	f2 ff 25 b5 e8 02 00 	bnd jmpq *0x2e8b5(%rip)        # 30fb0 <pthread_mutex_init@GLIBC_2.2.5>
    26fb:	0f 1f 44 00 00       	nopl   0x0(%rax,%rax,1)

0000000000002700 <sigaddset@plt>:
    2700:	f3 0f 1e fa          	endbr64 
    2704:	f2 ff 25 ad e8 02 00 	bnd jmpq *0x2e8ad(%rip)        # 30fb8 <sigaddset@GLIBC_2.2.5>
    270b:	0f 1f 44 00 00       	nopl   0x0(%rax,%rax,1)

0000000000002710 <pthread_mutex_lock@plt>:
    2710:	f3 0f 1e fa          	endbr64 
    2714:	f2 ff 25 a5 e8 02 00 	bnd jmpq *0x2e8a5(%rip)        # 30fc0 <pthread_mutex_lock@GLIBC_2.2.5>
    271b:	0f 1f 44 00 00       	nopl   0x0(%rax,%rax,1)

0000000000002720 <rand@plt>:
    2720:	f3 0f 1e fa          	endbr64 
    2724:	f2 ff 25 9d e8 02 00 	bnd jmpq *0x2e89d(%rip)        # 30fc8 <rand@GLIBC_2.2.5>
    272b:	0f 1f 44 00 00       	nopl   0x0(%rax,%rax,1)

0000000000002730 <usleep@plt>:
    2730:	f3 0f 1e fa          	endbr64 
    2734:	f2 ff 25 95 e8 02 00 	bnd jmpq *0x2e895(%rip)        # 30fd0 <usleep@GLIBC_2.2.5>
    273b:	0f 1f 44 00 00       	nopl   0x0(%rax,%rax,1)

Disassembly of section .text:

0000000000002740 <_start>:
    2740:	f3 0f 1e fa          	endbr64 
    2744:	31 ed                	xor    %ebp,%ebp
    2746:	49 89 d1             	mov    %rdx,%r9
    2749:	5e                   	pop    %rsi
    274a:	48 89 e2             	mov    %rsp,%rdx
    274d:	48 83 e4 f0          	and    $0xfffffffffffffff0,%rsp
    2751:	50                   	push   %rax
    2752:	54                   	push   %rsp
    2753:	4c 8d 05 16 47 02 00 	lea    0x24716(%rip),%r8        # 26e70 <__libc_csu_fini>
    275a:	48 8d 0d 9f 46 02 00 	lea    0x2469f(%rip),%rcx        # 26e00 <__libc_csu_init>
    2761:	48 8d 3d 44 14 00 00 	lea    0x1444(%rip),%rdi        # 3bac <main>
    2768:	ff 15 72 e8 02 00    	callq  *0x2e872(%rip)        # 30fe0 <__libc_start_main@GLIBC_2.2.5>
    276e:	f4                   	hlt    
    276f:	90                   	nop

0000000000002770 <deregister_tm_clones>:
    2770:	48 8d 3d 69 e9 02 00 	lea    0x2e969(%rip),%rdi        # 310e0 <stderr@@GLIBC_2.2.5>
    2777:	48 8d 05 62 e9 02 00 	lea    0x2e962(%rip),%rax        # 310e0 <stderr@@GLIBC_2.2.5>
    277e:	48 39 f8             	cmp    %rdi,%rax
    2781:	74 15                	je     2798 <deregister_tm_clones+0x28>
    2783:	48 8b 05 4e e8 02 00 	mov    0x2e84e(%rip),%rax        # 30fd8 <_ITM_deregisterTMCloneTable>
    278a:	48 85 c0             	test   %rax,%rax
    278d:	74 09                	je     2798 <deregister_tm_clones+0x28>
    278f:	ff e0                	jmpq   *%rax
    2791:	0f 1f 80 00 00 00 00 	nopl   0x0(%rax)
    2798:	c3                   	retq   
    2799:	0f 1f 80 00 00 00 00 	nopl   0x0(%rax)

00000000000027a0 <register_tm_clones>:
    27a0:	48 8d 3d 39 e9 02 00 	lea    0x2e939(%rip),%rdi        # 310e0 <stderr@@GLIBC_2.2.5>
    27a7:	48 8d 35 32 e9 02 00 	lea    0x2e932(%rip),%rsi        # 310e0 <stderr@@GLIBC_2.2.5>
    27ae:	48 29 fe             	sub    %rdi,%rsi
    27b1:	48 89 f0             	mov    %rsi,%rax
    27b4:	48 c1 ee 3f          	shr    $0x3f,%rsi
    27b8:	48 c1 f8 03          	sar    $0x3,%rax
    27bc:	48 01 c6             	add    %rax,%rsi
    27bf:	48 d1 fe             	sar    %rsi
    27c2:	74 14                	je     27d8 <register_tm_clones+0x38>
    27c4:	48 8b 05 25 e8 02 00 	mov    0x2e825(%rip),%rax        # 30ff0 <_ITM_registerTMCloneTable>
    27cb:	48 85 c0             	test   %rax,%rax
    27ce:	74 08                	je     27d8 <register_tm_clones+0x38>
    27d0:	ff e0                	jmpq   *%rax
    27d2:	66 0f 1f 44 00 00    	nopw   0x0(%rax,%rax,1)
    27d8:	c3                   	retq   
    27d9:	0f 1f 80 00 00 00 00 	nopl   0x0(%rax)

00000000000027e0 <__do_global_dtors_aux>:
    27e0:	f3 0f 1e fa          	endbr64 
    27e4:	80 3d fd e8 02 00 00 	cmpb   $0x0,0x2e8fd(%rip)        # 310e8 <completed.8061>
    27eb:	75 2b                	jne    2818 <__do_global_dtors_aux+0x38>
    27ed:	55                   	push   %rbp
    27ee:	48 83 3d 02 e8 02 00 	cmpq   $0x0,0x2e802(%rip)        # 30ff8 <__cxa_finalize@GLIBC_2.2.5>
    27f5:	00 
    27f6:	48 89 e5             	mov    %rsp,%rbp
    27f9:	74 0c                	je     2807 <__do_global_dtors_aux+0x27>
    27fb:	48 8b 3d 06 e8 02 00 	mov    0x2e806(%rip),%rdi        # 31008 <__dso_handle>
    2802:	e8 a9 fb ff ff       	callq  23b0 <__cxa_finalize@plt>
    2807:	e8 64 ff ff ff       	callq  2770 <deregister_tm_clones>
    280c:	c6 05 d5 e8 02 00 01 	movb   $0x1,0x2e8d5(%rip)        # 310e8 <completed.8061>
    2813:	5d                   	pop    %rbp
    2814:	c3                   	retq   
    2815:	0f 1f 00             	nopl   (%rax)
    2818:	c3                   	retq   
    2819:	0f 1f 80 00 00 00 00 	nopl   0x0(%rax)

0000000000002820 <frame_dummy>:
    2820:	f3 0f 1e fa          	endbr64 
    2824:	e9 77 ff ff ff       	jmpq   27a0 <register_tm_clones>

0000000000002829 <main_full>:
    2829:	f3 0f 1e fa          	endbr64 
    282d:	55                   	push   %rbp
    282e:	48 89 e5             	mov    %rsp,%rbp
    2831:	41 b9 00 00 00 00    	mov    $0x0,%r9d
    2837:	41 b8 05 00 00 00    	mov    $0x5,%r8d
    283d:	b9 00 00 00 00       	mov    $0x0,%ecx
    2842:	ba 46 00 00 00       	mov    $0x46,%edx
    2847:	48 8d 35 c8 47 02 00 	lea    0x247c8(%rip),%rsi        # 27016 <_IO_stdin_used+0x16>
    284e:	48 8d 3d 51 01 00 00 	lea    0x151(%rip),%rdi        # 29a6 <prvCheckTask>
    2855:	e8 9d 94 00 00       	callq  bcf7 <xTaskCreate>
    285a:	e8 1c db 01 00       	callq  2037b <vStartTaskNotifyTask>
    285f:	bf 02 00 00 00       	mov    $0x2,%edi
    2864:	e8 c3 17 01 00       	callq  1402c <vStartBlockingQueueTasks>
    2869:	bf 01 00 00 00       	mov    $0x1,%edi
    286e:	e8 e7 9f 01 00       	callq  1c85a <vStartSemaphoreTasks>
    2873:	bf 01 00 00 00       	mov    $0x1,%edi
    2878:	e8 f0 78 01 00       	callq  1a16d <vStartPolledQueueTasks>
    287d:	bf 00 00 00 00       	mov    $0x0,%edi
    2882:	e8 93 55 01 00       	callq  17e1a <vStartIntegerMathTasks>
    2887:	bf 00 00 00 00       	mov    $0x0,%edi
    288c:	e8 b3 46 01 00       	callq  16f44 <vStartGenericQueueTasks>
    2891:	e8 31 7b 01 00       	callq  1a3c7 <vStartQueuePeekTasks>
    2896:	bf 00 00 00 00       	mov    $0x0,%edi
    289b:	e8 be 40 01 00       	callq  1695e <vStartMathTasks>
    28a0:	e8 c0 9a 01 00       	callq  1c365 <vStartRecursiveMutexTasks>
    28a5:	e8 80 25 01 00       	callq  14e2a <vStartCountingSemaphoreTasks>
    28aa:	e8 93 2b 01 00       	callq  15442 <vStartDynamicPriorityTasks>
    28af:	bf 00 00 00 00       	mov    $0x0,%edi
    28b4:	e8 e8 80 01 00       	callq  1a9a1 <vStartQueueOverwriteTask>
    28b9:	e8 b7 30 01 00       	callq  15975 <vStartEventGroupTasks>
    28be:	e8 dc 56 01 00       	callq  17f9f <vStartInterruptSemaphoreTasks>
    28c3:	e8 0d 1c 01 00       	callq  144d5 <vCreateBlockTimeTasks>
    28c8:	e8 f0 0a 01 00       	callq  133bd <vCreateAbortDelayTasks>
    28cd:	41 b9 00 00 00 00    	mov    $0x0,%r9d
    28d3:	41 b8 00 00 00 00    	mov    $0x0,%r8d
    28d9:	b9 00 00 00 00       	mov    $0x0,%ecx
    28de:	ba 46 00 00 00       	mov    $0x46,%edx
    28e3:	48 8d 35 32 47 02 00 	lea    0x24732(%rip),%rsi        # 2701c <_IO_stdin_used+0x1c>
    28ea:	48 8d 3d 4d 0d 00 00 	lea    0xd4d(%rip),%rdi        # 363e <prvDemoQueueSpaceFunctions>
    28f1:	e8 01 94 00 00       	callq  bcf7 <xTaskCreate>
    28f6:	41 b9 00 00 00 00    	mov    $0x0,%r9d
    28fc:	41 b8 00 00 00 00    	mov    $0x0,%r8d
    2902:	b9 00 00 00 00       	mov    $0x0,%ecx
    2907:	ba 46 00 00 00       	mov    $0x46,%edx
    290c:	48 8d 35 10 47 02 00 	lea    0x24710(%rip),%rsi        # 27023 <_IO_stdin_used+0x23>
    2913:	48 8d 3d 90 0e 00 00 	lea    0xe90(%rip),%rdi        # 37aa <prvPermanentlyBlockingSemaphoreTask>
    291a:	e8 d8 93 00 00       	callq  bcf7 <xTaskCreate>
    291f:	41 b9 00 00 00 00    	mov    $0x0,%r9d
    2925:	41 b8 00 00 00 00    	mov    $0x0,%r8d
    292b:	b9 00 00 00 00       	mov    $0x0,%ecx
    2930:	ba 46 00 00 00       	mov    $0x46,%edx
    2935:	48 8d 35 f0 46 02 00 	lea    0x246f0(%rip),%rsi        # 2702c <_IO_stdin_used+0x2c>
    293c:	48 8d 3d df 0e 00 00 	lea    0xedf(%rip),%rdi        # 3822 <prvPermanentlyBlockingNotificationTask>
    2943:	e8 af 93 00 00       	callq  bcf7 <xTaskCreate>
    2948:	bf 46 00 00 00       	mov    $0x46,%edi
    294d:	e8 15 63 01 00       	callq  18c67 <vStartMessageBufferTasks>
    2952:	e8 3f b4 01 00       	callq  1dd96 <vStartStreamBufferTasks>
    2957:	e8 7f d7 01 00       	callq  200db <vStartStreamBufferInterruptDemo>
    295c:	bf 46 00 00 00       	mov    $0x46,%edi
    2961:	e8 bb 5e 01 00       	callq  18821 <vStartMessageBufferAMPTasks>
    2966:	e8 a3 83 01 00       	callq  1ad0e <vStartQueueSetTasks>
    296b:	e8 23 98 01 00       	callq  1c193 <vStartQueueSetPollingTask>
    2970:	e8 ff a2 01 00       	callq  1cc74 <vStartStaticallyAllocatedTasks>
    2975:	bf 32 00 00 00       	mov    $0x32,%edi
    297a:	e8 b0 eb 01 00       	callq  2152f <vStartTimerDemoTask>
    297f:	bf 03 00 00 00       	mov    $0x3,%edi
    2984:	e8 9d 28 01 00       	callq  15226 <vCreateSuicidalTasks>
    2989:	bf 01 00 00 00       	mov    $0x1,%edi
    298e:	e8 ca 2f 00 00       	callq  595d <xQueueCreateMutex>
    2993:	48 89 05 5e e7 02 00 	mov    %rax,0x2e75e(%rip)        # 310f8 <xMutexToDelete>
    299a:	e8 24 aa 00 00       	callq  d3c3 <vTaskStartScheduler>
    299f:	b8 00 00 00 00       	mov    $0x0,%eax
    29a4:	5d                   	pop    %rbp
    29a5:	c3                   	retq   

00000000000029a6 <prvCheckTask>:
    29a6:	f3 0f 1e fa          	endbr64 
    29aa:	55                   	push   %rbp
    29ab:	48 89 e5             	mov    %rsp,%rbp
    29ae:	48 83 ec 60          	sub    $0x60,%rsp
    29b2:	48 89 7d a8          	mov    %rdi,-0x58(%rbp)
    29b6:	64 48 8b 04 25 28 00 	mov    %fs:0x28,%rax
    29bd:	00 00 
    29bf:	48 89 45 f8          	mov    %rax,-0x8(%rbp)
    29c3:	31 c0                	xor    %eax,%eax
    29c5:	48 c7 45 b8 10 27 00 	movq   $0x2710,-0x48(%rbp)
    29cc:	00 
    29cd:	e8 c6 ae 00 00       	callq  d898 <xTaskGetTickCount>
    29d2:	48 89 45 c0          	mov    %rax,-0x40(%rbp)
    29d6:	48 8b 55 b8          	mov    -0x48(%rbp),%rdx
    29da:	48 8d 45 c0          	lea    -0x40(%rbp),%rax
    29de:	48 89 d6             	mov    %rdx,%rsi
    29e1:	48 89 c7             	mov    %rax,%rdi
    29e4:	e8 23 9c 00 00       	callq  c60c <xTaskDelayUntil>
    29e9:	48 8b 45 b8          	mov    -0x48(%rbp),%rax
    29ed:	48 89 c7             	mov    %rax,%rdi
    29f0:	e8 f5 ec 01 00       	callq  216ea <xAreTimerDemoTasksStillRunning>
    29f5:	48 83 f8 01          	cmp    $0x1,%rax
    29f9:	74 1d                	je     2a18 <prvCheckTask+0x72>
    29fb:	48 8d 05 34 46 02 00 	lea    0x24634(%rip),%rax        # 27036 <_IO_stdin_used+0x36>
    2a02:	48 89 05 17 e6 02 00 	mov    %rax,0x2e617(%rip)        # 31020 <pcStatusMessage>
    2a09:	8b 05 e1 e6 02 00    	mov    0x2e6e1(%rip),%eax        # 310f0 <xErrorCount>
    2a0f:	83 c0 01             	add    $0x1,%eax
    2a12:	89 05 d8 e6 02 00    	mov    %eax,0x2e6d8(%rip)        # 310f0 <xErrorCount>
    2a18:	e8 5d d5 01 00       	callq  1ff7a <xAreStreamBufferTasksStillRunning>
    2a1d:	48 83 f8 01          	cmp    $0x1,%rax
    2a21:	74 22                	je     2a45 <prvCheckTask+0x9f>
    2a23:	48 8d 05 1d 46 02 00 	lea    0x2461d(%rip),%rax        # 27047 <_IO_stdin_used+0x47>
    2a2a:	48 89 05 ef e5 02 00 	mov    %rax,0x2e5ef(%rip)        # 31020 <pcStatusMessage>
    2a31:	8b 05 b9 e6 02 00    	mov    0x2e6b9(%rip),%eax        # 310f0 <xErrorCount>
    2a37:	83 c0 01             	add    $0x1,%eax
    2a3a:	89 05 b0 e6 02 00    	mov    %eax,0x2e6b0(%rip)        # 310f0 <xErrorCount>
    2a40:	e9 fd 03 00 00       	jmpq   2e42 <prvCheckTask+0x49c>
    2a45:	e8 ef 75 01 00       	callq  1a039 <xAreMessageBufferTasksStillRunning>
    2a4a:	48 83 f8 01          	cmp    $0x1,%rax
    2a4e:	74 22                	je     2a72 <prvCheckTask+0xcc>
    2a50:	48 8d 05 05 46 02 00 	lea    0x24605(%rip),%rax        # 2705c <_IO_stdin_used+0x5c>
    2a57:	48 89 05 c2 e5 02 00 	mov    %rax,0x2e5c2(%rip)        # 31020 <pcStatusMessage>
    2a5e:	8b 05 8c e6 02 00    	mov    0x2e68c(%rip),%eax        # 310f0 <xErrorCount>
    2a64:	83 c0 01             	add    $0x1,%eax
    2a67:	89 05 83 e6 02 00    	mov    %eax,0x2e683(%rip)        # 310f0 <xErrorCount>
    2a6d:	e9 d0 03 00 00       	jmpq   2e42 <prvCheckTask+0x49c>
    2a72:	e8 00 ea 01 00       	callq  21477 <xAreTaskNotificationTasksStillRunning>
    2a77:	48 83 f8 01          	cmp    $0x1,%rax
    2a7b:	74 22                	je     2a9f <prvCheckTask+0xf9>
    2a7d:	48 8d 05 ee 45 02 00 	lea    0x245ee(%rip),%rax        # 27072 <_IO_stdin_used+0x72>
    2a84:	48 89 05 95 e5 02 00 	mov    %rax,0x2e595(%rip)        # 31020 <pcStatusMessage>
    2a8b:	8b 05 5f e6 02 00    	mov    0x2e65f(%rip),%eax        # 310f0 <xErrorCount>
    2a91:	83 c0 01             	add    $0x1,%eax
    2a94:	89 05 56 e6 02 00    	mov    %eax,0x2e656(%rip)        # 310f0 <xErrorCount>
    2a9a:	e9 a3 03 00 00       	jmpq   2e42 <prvCheckTask+0x49c>
    2a9f:	e8 0c 5d 01 00       	callq  187b0 <xAreInterruptSemaphoreTasksStillRunning>
    2aa4:	48 83 f8 01          	cmp    $0x1,%rax
    2aa8:	74 22                	je     2acc <prvCheckTask+0x126>
    2aaa:	48 8d 05 d6 45 02 00 	lea    0x245d6(%rip),%rax        # 27087 <_IO_stdin_used+0x87>
    2ab1:	48 89 05 68 e5 02 00 	mov    %rax,0x2e568(%rip)        # 31020 <pcStatusMessage>
    2ab8:	8b 05 32 e6 02 00    	mov    0x2e632(%rip),%eax        # 310f0 <xErrorCount>
    2abe:	83 c0 01             	add    $0x1,%eax
    2ac1:	89 05 29 e6 02 00    	mov    %eax,0x2e629(%rip)        # 310f0 <xErrorCount>
    2ac7:	e9 76 03 00 00       	jmpq   2e42 <prvCheckTask+0x49c>
    2acc:	e8 0b 3e 01 00       	callq  168dc <xAreEventGroupTasksStillRunning>
    2ad1:	48 83 f8 01          	cmp    $0x1,%rax
    2ad5:	74 22                	je     2af9 <prvCheckTask+0x153>
    2ad7:	48 8d 05 b7 45 02 00 	lea    0x245b7(%rip),%rax        # 27095 <_IO_stdin_used+0x95>
    2ade:	48 89 05 3b e5 02 00 	mov    %rax,0x2e53b(%rip)        # 31020 <pcStatusMessage>
    2ae5:	8b 05 05 e6 02 00    	mov    0x2e605(%rip),%eax        # 310f0 <xErrorCount>
    2aeb:	83 c0 01             	add    $0x1,%eax
    2aee:	89 05 fc e5 02 00    	mov    %eax,0x2e5fc(%rip)        # 310f0 <xErrorCount>
    2af4:	e9 49 03 00 00       	jmpq   2e42 <prvCheckTask+0x49c>
    2af9:	e8 2e 54 01 00       	callq  17f2c <xAreIntegerMathsTaskStillRunning>
    2afe:	48 83 f8 01          	cmp    $0x1,%rax
    2b02:	74 22                	je     2b26 <prvCheckTask+0x180>
    2b04:	48 8d 05 9c 45 02 00 	lea    0x2459c(%rip),%rax        # 270a7 <_IO_stdin_used+0xa7>
    2b0b:	48 89 05 0e e5 02 00 	mov    %rax,0x2e50e(%rip)        # 31020 <pcStatusMessage>
    2b12:	8b 05 d8 e5 02 00    	mov    0x2e5d8(%rip),%eax        # 310f0 <xErrorCount>
    2b18:	83 c0 01             	add    $0x1,%eax
    2b1b:	89 05 cf e5 02 00    	mov    %eax,0x2e5cf(%rip)        # 310f0 <xErrorCount>
    2b21:	e9 1c 03 00 00       	jmpq   2e42 <prvCheckTask+0x49c>
    2b26:	e8 87 52 01 00       	callq  17db2 <xAreGenericQueueTasksStillRunning>
    2b2b:	48 83 f8 01          	cmp    $0x1,%rax
    2b2f:	74 22                	je     2b53 <prvCheckTask+0x1ad>
    2b31:	48 8d 05 7e 45 02 00 	lea    0x2457e(%rip),%rax        # 270b6 <_IO_stdin_used+0xb6>
    2b38:	48 89 05 e1 e4 02 00 	mov    %rax,0x2e4e1(%rip)        # 31020 <pcStatusMessage>
    2b3f:	8b 05 ab e5 02 00    	mov    0x2e5ab(%rip),%eax        # 310f0 <xErrorCount>
    2b45:	83 c0 01             	add    $0x1,%eax
    2b48:	89 05 a2 e5 02 00    	mov    %eax,0x2e5a2(%rip)        # 310f0 <xErrorCount>
    2b4e:	e9 ef 02 00 00       	jmpq   2e42 <prvCheckTask+0x49c>
    2b53:	e8 08 7e 01 00       	callq  1a960 <xAreQueuePeekTasksStillRunning>
    2b58:	48 83 f8 01          	cmp    $0x1,%rax
    2b5c:	74 22                	je     2b80 <prvCheckTask+0x1da>
    2b5e:	48 8d 05 61 45 02 00 	lea    0x24561(%rip),%rax        # 270c6 <_IO_stdin_used+0xc6>
    2b65:	48 89 05 b4 e4 02 00 	mov    %rax,0x2e4b4(%rip)        # 31020 <pcStatusMessage>
    2b6c:	8b 05 7e e5 02 00    	mov    0x2e57e(%rip),%eax        # 310f0 <xErrorCount>
    2b72:	83 c0 01             	add    $0x1,%eax
    2b75:	89 05 75 e5 02 00    	mov    %eax,0x2e575(%rip)        # 310f0 <xErrorCount>
    2b7b:	e9 c2 02 00 00       	jmpq   2e42 <prvCheckTask+0x49c>
    2b80:	e8 6b 18 01 00       	callq  143f0 <xAreBlockingQueuesStillRunning>
    2b85:	48 83 f8 01          	cmp    $0x1,%rax
    2b89:	74 22                	je     2bad <prvCheckTask+0x207>
    2b8b:	48 8d 05 45 45 02 00 	lea    0x24545(%rip),%rax        # 270d7 <_IO_stdin_used+0xd7>
    2b92:	48 89 05 87 e4 02 00 	mov    %rax,0x2e487(%rip)        # 31020 <pcStatusMessage>
    2b99:	8b 05 51 e5 02 00    	mov    0x2e551(%rip),%eax        # 310f0 <xErrorCount>
    2b9f:	83 c0 01             	add    $0x1,%eax
    2ba2:	89 05 48 e5 02 00    	mov    %eax,0x2e548(%rip)        # 310f0 <xErrorCount>
    2ba8:	e9 95 02 00 00       	jmpq   2e42 <prvCheckTask+0x49c>
    2bad:	e8 3d a0 01 00       	callq  1cbef <xAreSemaphoreTasksStillRunning>
    2bb2:	48 83 f8 01          	cmp    $0x1,%rax
    2bb6:	74 22                	je     2bda <prvCheckTask+0x234>
    2bb8:	48 8d 05 2a 45 02 00 	lea    0x2452a(%rip),%rax        # 270e9 <_IO_stdin_used+0xe9>
    2bbf:	48 89 05 5a e4 02 00 	mov    %rax,0x2e45a(%rip)        # 31020 <pcStatusMessage>
    2bc6:	8b 05 24 e5 02 00    	mov    0x2e524(%rip),%eax        # 310f0 <xErrorCount>
    2bcc:	83 c0 01             	add    $0x1,%eax
    2bcf:	89 05 1b e5 02 00    	mov    %eax,0x2e51b(%rip)        # 310f0 <xErrorCount>
    2bd5:	e9 68 02 00 00       	jmpq   2e42 <prvCheckTask+0x49c>
    2bda:	e8 9a 77 01 00       	callq  1a379 <xArePollingQueuesStillRunning>
    2bdf:	48 83 f8 01          	cmp    $0x1,%rax
    2be3:	74 22                	je     2c07 <prvCheckTask+0x261>
    2be5:	48 8d 05 0c 45 02 00 	lea    0x2450c(%rip),%rax        # 270f8 <_IO_stdin_used+0xf8>
    2bec:	48 89 05 2d e4 02 00 	mov    %rax,0x2e42d(%rip)        # 31020 <pcStatusMessage>
    2bf3:	8b 05 f7 e4 02 00    	mov    0x2e4f7(%rip),%eax        # 310f0 <xErrorCount>
    2bf9:	83 c0 01             	add    $0x1,%eax
    2bfc:	89 05 ee e4 02 00    	mov    %eax,0x2e4ee(%rip)        # 310f0 <xErrorCount>
    2c02:	e9 3b 02 00 00       	jmpq   2e42 <prvCheckTask+0x49c>
    2c07:	e8 d4 42 01 00       	callq  16ee0 <xAreMathsTaskStillRunning>
    2c0c:	48 83 f8 01          	cmp    $0x1,%rax
    2c10:	74 22                	je     2c34 <prvCheckTask+0x28e>
    2c12:	48 8d 05 f0 44 02 00 	lea    0x244f0(%rip),%rax        # 27109 <_IO_stdin_used+0x109>
    2c19:	48 89 05 00 e4 02 00 	mov    %rax,0x2e400(%rip)        # 31020 <pcStatusMessage>
    2c20:	8b 05 ca e4 02 00    	mov    0x2e4ca(%rip),%eax        # 310f0 <xErrorCount>
    2c26:	83 c0 01             	add    $0x1,%eax
    2c29:	89 05 c1 e4 02 00    	mov    %eax,0x2e4c1(%rip)        # 310f0 <xErrorCount>
    2c2f:	e9 0e 02 00 00       	jmpq   2e42 <prvCheckTask+0x49c>
    2c34:	e8 6a 9b 01 00       	callq  1c7a3 <xAreRecursiveMutexTasksStillRunning>
    2c39:	48 83 f8 01          	cmp    $0x1,%rax
    2c3d:	74 22                	je     2c61 <prvCheckTask+0x2bb>
    2c3f:	48 8d 05 cf 44 02 00 	lea    0x244cf(%rip),%rax        # 27115 <_IO_stdin_used+0x115>
    2c46:	48 89 05 d3 e3 02 00 	mov    %rax,0x2e3d3(%rip)        # 31020 <pcStatusMessage>
    2c4d:	8b 05 9d e4 02 00    	mov    0x2e49d(%rip),%eax        # 310f0 <xErrorCount>
    2c53:	83 c0 01             	add    $0x1,%eax
    2c56:	89 05 94 e4 02 00    	mov    %eax,0x2e494(%rip)        # 310f0 <xErrorCount>
    2c5c:	e9 e1 01 00 00       	jmpq   2e42 <prvCheckTask+0x49c>
    2c61:	e8 40 25 01 00       	callq  151a6 <xAreCountingSemaphoreTasksStillRunning>
    2c66:	48 83 f8 01          	cmp    $0x1,%rax
    2c6a:	74 22                	je     2c8e <prvCheckTask+0x2e8>
    2c6c:	48 8d 05 b2 44 02 00 	lea    0x244b2(%rip),%rax        # 27125 <_IO_stdin_used+0x125>
    2c73:	48 89 05 a6 e3 02 00 	mov    %rax,0x2e3a6(%rip)        # 31020 <pcStatusMessage>
    2c7a:	8b 05 70 e4 02 00    	mov    0x2e470(%rip),%eax        # 310f0 <xErrorCount>
    2c80:	83 c0 01             	add    $0x1,%eax
    2c83:	89 05 67 e4 02 00    	mov    %eax,0x2e467(%rip)        # 310f0 <xErrorCount>
    2c89:	e9 b4 01 00 00       	jmpq   2e42 <prvCheckTask+0x49c>
    2c8e:	e8 1b 27 01 00       	callq  153ae <xIsCreateTaskStillRunning>
    2c93:	48 83 f8 01          	cmp    $0x1,%rax
    2c97:	74 22                	je     2cbb <prvCheckTask+0x315>
    2c99:	48 8d 05 95 44 02 00 	lea    0x24495(%rip),%rax        # 27135 <_IO_stdin_used+0x135>
    2ca0:	48 89 05 79 e3 02 00 	mov    %rax,0x2e379(%rip)        # 31020 <pcStatusMessage>
    2ca7:	8b 05 43 e4 02 00    	mov    0x2e443(%rip),%eax        # 310f0 <xErrorCount>
    2cad:	83 c0 01             	add    $0x1,%eax
    2cb0:	89 05 3a e4 02 00    	mov    %eax,0x2e43a(%rip)        # 310f0 <xErrorCount>
    2cb6:	e9 87 01 00 00       	jmpq   2e42 <prvCheckTask+0x49c>
    2cbb:	e8 28 2c 01 00       	callq  158e8 <xAreDynamicPriorityTasksStillRunning>
    2cc0:	48 83 f8 01          	cmp    $0x1,%rax
    2cc4:	74 22                	je     2ce8 <prvCheckTask+0x342>
    2cc6:	48 8d 05 75 44 02 00 	lea    0x24475(%rip),%rax        # 27142 <_IO_stdin_used+0x142>
    2ccd:	48 89 05 4c e3 02 00 	mov    %rax,0x2e34c(%rip)        # 31020 <pcStatusMessage>
    2cd4:	8b 05 16 e4 02 00    	mov    0x2e416(%rip),%eax        # 310f0 <xErrorCount>
    2cda:	83 c0 01             	add    $0x1,%eax
    2cdd:	89 05 0d e4 02 00    	mov    %eax,0x2e40d(%rip)        # 310f0 <xErrorCount>
    2ce3:	e9 5a 01 00 00       	jmpq   2e42 <prvCheckTask+0x49c>
    2ce8:	e8 89 7e 01 00       	callq  1ab76 <xIsQueueOverwriteTaskStillRunning>
    2ced:	48 83 f8 01          	cmp    $0x1,%rax
    2cf1:	74 22                	je     2d15 <prvCheckTask+0x36f>
    2cf3:	48 8d 05 57 44 02 00 	lea    0x24457(%rip),%rax        # 27151 <_IO_stdin_used+0x151>
    2cfa:	48 89 05 1f e3 02 00 	mov    %rax,0x2e31f(%rip)        # 31020 <pcStatusMessage>
    2d01:	8b 05 e9 e3 02 00    	mov    0x2e3e9(%rip),%eax        # 310f0 <xErrorCount>
    2d07:	83 c0 01             	add    $0x1,%eax
    2d0a:	89 05 e0 e3 02 00    	mov    %eax,0x2e3e0(%rip)        # 310f0 <xErrorCount>
    2d10:	e9 2d 01 00 00       	jmpq   2e42 <prvCheckTask+0x49c>
    2d15:	e8 93 20 01 00       	callq  14dad <xAreBlockTimeTestTasksStillRunning>
    2d1a:	48 83 f8 01          	cmp    $0x1,%rax
    2d1e:	74 22                	je     2d42 <prvCheckTask+0x39c>
    2d20:	48 8d 05 41 44 02 00 	lea    0x24441(%rip),%rax        # 27168 <_IO_stdin_used+0x168>
    2d27:	48 89 05 f2 e2 02 00 	mov    %rax,0x2e2f2(%rip)        # 31020 <pcStatusMessage>
    2d2e:	8b 05 bc e3 02 00    	mov    0x2e3bc(%rip),%eax        # 310f0 <xErrorCount>
    2d34:	83 c0 01             	add    $0x1,%eax
    2d37:	89 05 b3 e3 02 00    	mov    %eax,0x2e3b3(%rip)        # 310f0 <xErrorCount>
    2d3d:	e9 00 01 00 00       	jmpq   2e42 <prvCheckTask+0x49c>
    2d42:	e8 68 12 01 00       	callq  13faf <xAreAbortDelayTestTasksStillRunning>
    2d47:	48 83 f8 01          	cmp    $0x1,%rax
    2d4b:	74 22                	je     2d6f <prvCheckTask+0x3c9>
    2d4d:	48 8d 05 26 44 02 00 	lea    0x24426(%rip),%rax        # 2717a <_IO_stdin_used+0x17a>
    2d54:	48 89 05 c5 e2 02 00 	mov    %rax,0x2e2c5(%rip)        # 31020 <pcStatusMessage>
    2d5b:	8b 05 8f e3 02 00    	mov    0x2e38f(%rip),%eax        # 310f0 <xErrorCount>
    2d61:	83 c0 01             	add    $0x1,%eax
    2d64:	89 05 86 e3 02 00    	mov    %eax,0x2e386(%rip)        # 310f0 <xErrorCount>
    2d6a:	e9 d3 00 00 00       	jmpq   2e42 <prvCheckTask+0x49c>
    2d6f:	e8 ce d5 01 00       	callq  20342 <xIsInterruptStreamBufferDemoStillRunning>
    2d74:	48 83 f8 01          	cmp    $0x1,%rax
    2d78:	74 22                	je     2d9c <prvCheckTask+0x3f6>
    2d7a:	48 8d 05 0f 44 02 00 	lea    0x2440f(%rip),%rax        # 27190 <_IO_stdin_used+0x190>
    2d81:	48 89 05 98 e2 02 00 	mov    %rax,0x2e298(%rip)        # 31020 <pcStatusMessage>
    2d88:	8b 05 62 e3 02 00    	mov    0x2e362(%rip),%eax        # 310f0 <xErrorCount>
    2d8e:	83 c0 01             	add    $0x1,%eax
    2d91:	89 05 59 e3 02 00    	mov    %eax,0x2e359(%rip)        # 310f0 <xErrorCount>
    2d97:	e9 a6 00 00 00       	jmpq   2e42 <prvCheckTask+0x49c>
    2d9c:	e8 36 5e 01 00       	callq  18bd7 <xAreMessageBufferAMPTasksStillRunning>
    2da1:	48 83 f8 01          	cmp    $0x1,%rax
    2da5:	74 1f                	je     2dc6 <prvCheckTask+0x420>
    2da7:	48 8d 05 01 44 02 00 	lea    0x24401(%rip),%rax        # 271af <_IO_stdin_used+0x1af>
    2dae:	48 89 05 6b e2 02 00 	mov    %rax,0x2e26b(%rip)        # 31020 <pcStatusMessage>
    2db5:	8b 05 35 e3 02 00    	mov    0x2e335(%rip),%eax        # 310f0 <xErrorCount>
    2dbb:	83 c0 01             	add    $0x1,%eax
    2dbe:	89 05 2c e3 02 00    	mov    %eax,0x2e32c(%rip)        # 310f0 <xErrorCount>
    2dc4:	eb 7c                	jmp    2e42 <prvCheckTask+0x49c>
    2dc6:	e8 c2 7f 01 00       	callq  1ad8d <xAreQueueSetTasksStillRunning>
    2dcb:	48 83 f8 01          	cmp    $0x1,%rax
    2dcf:	74 1f                	je     2df0 <prvCheckTask+0x44a>
    2dd1:	48 8d 05 f1 43 02 00 	lea    0x243f1(%rip),%rax        # 271c9 <_IO_stdin_used+0x1c9>
    2dd8:	48 89 05 41 e2 02 00 	mov    %rax,0x2e241(%rip)        # 31020 <pcStatusMessage>
    2ddf:	8b 05 0b e3 02 00    	mov    0x2e30b(%rip),%eax        # 310f0 <xErrorCount>
    2de5:	83 c0 01             	add    $0x1,%eax
    2de8:	89 05 02 e3 02 00    	mov    %eax,0x2e302(%rip)        # 310f0 <xErrorCount>
    2dee:	eb 52                	jmp    2e42 <prvCheckTask+0x49c>
    2df0:	e8 38 95 01 00       	callq  1c32d <xAreQueueSetPollTasksStillRunning>
    2df5:	48 83 f8 01          	cmp    $0x1,%rax
    2df9:	74 1f                	je     2e1a <prvCheckTask+0x474>
    2dfb:	48 8d 05 d8 43 02 00 	lea    0x243d8(%rip),%rax        # 271da <_IO_stdin_used+0x1da>
    2e02:	48 89 05 17 e2 02 00 	mov    %rax,0x2e217(%rip)        # 31020 <pcStatusMessage>
    2e09:	8b 05 e1 e2 02 00    	mov    0x2e2e1(%rip),%eax        # 310f0 <xErrorCount>
    2e0f:	83 c0 01             	add    $0x1,%eax
    2e12:	89 05 d8 e2 02 00    	mov    %eax,0x2e2d8(%rip)        # 310f0 <xErrorCount>
    2e18:	eb 28                	jmp    2e42 <prvCheckTask+0x49c>
    2e1a:	e8 1d af 01 00       	callq  1dd3c <xAreStaticAllocationTasksStillRunning>
    2e1f:	48 83 f8 01          	cmp    $0x1,%rax
    2e23:	74 1d                	je     2e42 <prvCheckTask+0x49c>
    2e25:	8b 05 c5 e2 02 00    	mov    0x2e2c5(%rip),%eax        # 310f0 <xErrorCount>
    2e2b:	83 c0 01             	add    $0x1,%eax
    2e2e:	89 05 bc e2 02 00    	mov    %eax,0x2e2bc(%rip)        # 310f0 <xErrorCount>
    2e34:	48 8d 05 b8 43 02 00 	lea    0x243b8(%rip),%rax        # 271f3 <_IO_stdin_used+0x1f3>
    2e3b:	48 89 05 de e1 02 00 	mov    %rax,0x2e1de(%rip)        # 31020 <pcStatusMessage>
    2e42:	e8 51 aa 00 00       	callq  d898 <xTaskGetTickCount>
    2e47:	48 89 c2             	mov    %rax,%rdx
    2e4a:	48 8b 05 cf e1 02 00 	mov    0x2e1cf(%rip),%rax        # 31020 <pcStatusMessage>
    2e51:	48 89 c6             	mov    %rax,%rsi
    2e54:	48 8d 3d b1 43 02 00 	lea    0x243b1(%rip),%rdi        # 2720c <_IO_stdin_used+0x20c>
    2e5b:	b8 00 00 00 00       	mov    $0x0,%eax
    2e60:	e8 7b f6 ff ff       	callq  24e0 <printf@plt>
    2e65:	8b 05 85 e2 02 00    	mov    0x2e285(%rip),%eax        # 310f0 <xErrorCount>
    2e6b:	85 c0                	test   %eax,%eax
    2e6d:	74 0a                	je     2e79 <prvCheckTask+0x4d3>
    2e6f:	bf 01 00 00 00       	mov    $0x1,%edi
    2e74:	e8 47 f8 ff ff       	callq  26c0 <exit@plt>
    2e79:	48 8d 05 88 41 02 00 	lea    0x24188(%rip),%rax        # 27008 <_IO_stdin_used+0x8>
    2e80:	48 89 05 99 e1 02 00 	mov    %rax,0x2e199(%rip)        # 31020 <pcStatusMessage>
    2e87:	e9 4a fb ff ff       	jmpq   29d6 <prvCheckTask+0x30>

0000000000002e8c <prvTestTask>:
    2e8c:	f3 0f 1e fa          	endbr64 
    2e90:	55                   	push   %rbp
    2e91:	48 89 e5             	mov    %rsp,%rbp
    2e94:	48 83 ec 40          	sub    $0x40,%rsp
    2e98:	48 89 7d c8          	mov    %rdi,-0x38(%rbp)
    2e9c:	64 48 8b 04 25 28 00 	mov    %fs:0x28,%rax
    2ea3:	00 00 
    2ea5:	48 89 45 f8          	mov    %rax,-0x8(%rbp)
    2ea9:	31 c0                	xor    %eax,%eax
    2eab:	48 c7 45 d8 05 00 00 	movq   $0x5,-0x28(%rbp)
    2eb2:	00 
    2eb3:	48 8b 45 d8          	mov    -0x28(%rbp),%rax
    2eb7:	48 c1 e8 03          	shr    $0x3,%rax
    2ebb:	48 ba cf f7 53 e3 a5 	movabs $0x20c49ba5e353f7cf,%rdx
    2ec2:	9b c4 20 
    2ec5:	48 f7 e2             	mul    %rdx
    2ec8:	48 89 d0             	mov    %rdx,%rax
    2ecb:	48 c1 e8 04          	shr    $0x4,%rax
    2ecf:	48 89 45 e0          	mov    %rax,-0x20(%rbp)
    2ed3:	48 8b 4d d8          	mov    -0x28(%rbp),%rcx
    2ed7:	48 89 c8             	mov    %rcx,%rax
    2eda:	48 c1 e8 03          	shr    $0x3,%rax
    2ede:	48 ba cf f7 53 e3 a5 	movabs $0x20c49ba5e353f7cf,%rdx
    2ee5:	9b c4 20 
    2ee8:	48 f7 e2             	mul    %rdx
    2eeb:	48 89 d0             	mov    %rdx,%rax
    2eee:	48 c1 e8 04          	shr    $0x4,%rax
    2ef2:	48 69 c0 e8 03 00 00 	imul   $0x3e8,%rax,%rax
    2ef9:	48 29 c1             	sub    %rax,%rcx
    2efc:	48 89 c8             	mov    %rcx,%rax
    2eff:	48 69 c0 40 42 0f 00 	imul   $0xf4240,%rax,%rax
    2f06:	48 89 45 e8          	mov    %rax,-0x18(%rbp)
    2f0a:	48 8d 45 e0          	lea    -0x20(%rbp),%rax
    2f0e:	be 00 00 00 00       	mov    $0x0,%esi
    2f13:	48 89 c7             	mov    %rax,%rdi
    2f16:	e8 e5 f5 ff ff       	callq  2500 <nanosleep@plt>
    2f1b:	eb 96                	jmp    2eb3 <prvTestTask+0x27>

0000000000002f1d <vFullDemoIdleFunction>:
    2f1d:	f3 0f 1e fa          	endbr64 
    2f21:	55                   	push   %rbp
    2f22:	48 89 e5             	mov    %rsp,%rbp
    2f25:	48 83 ec 30          	sub    $0x30,%rsp
    2f29:	64 48 8b 04 25 28 00 	mov    %fs:0x28,%rax
    2f30:	00 00 
    2f32:	48 89 45 f8          	mov    %rax,-0x8(%rbp)
    2f36:	31 c0                	xor    %eax,%eax
    2f38:	48 c7 45 d0 0f 00 00 	movq   $0xf,-0x30(%rbp)
    2f3f:	00 
    2f40:	48 8b 45 d0          	mov    -0x30(%rbp),%rax
    2f44:	48 c1 e8 03          	shr    $0x3,%rax
    2f48:	48 ba cf f7 53 e3 a5 	movabs $0x20c49ba5e353f7cf,%rdx
    2f4f:	9b c4 20 
    2f52:	48 f7 e2             	mul    %rdx
    2f55:	48 89 d0             	mov    %rdx,%rax
    2f58:	48 c1 e8 04          	shr    $0x4,%rax
    2f5c:	48 89 45 e0          	mov    %rax,-0x20(%rbp)
    2f60:	48 8b 4d d0          	mov    -0x30(%rbp),%rcx
    2f64:	48 89 c8             	mov    %rcx,%rax
    2f67:	48 c1 e8 03          	shr    $0x3,%rax
    2f6b:	48 ba cf f7 53 e3 a5 	movabs $0x20c49ba5e353f7cf,%rdx
    2f72:	9b c4 20 
    2f75:	48 f7 e2             	mul    %rdx
    2f78:	48 89 d0             	mov    %rdx,%rax
    2f7b:	48 c1 e8 04          	shr    $0x4,%rax
    2f7f:	48 69 c0 e8 03 00 00 	imul   $0x3e8,%rax,%rax
    2f86:	48 29 c1             	sub    %rax,%rcx
    2f89:	48 89 c8             	mov    %rcx,%rax
    2f8c:	48 69 c0 40 42 0f 00 	imul   $0xf4240,%rax,%rax
    2f93:	48 89 45 e8          	mov    %rax,-0x18(%rbp)
    2f97:	48 8d 45 e0          	lea    -0x20(%rbp),%rax
    2f9b:	be 00 00 00 00       	mov    $0x0,%esi
    2fa0:	48 89 c7             	mov    %rax,%rdi
    2fa3:	e8 58 f5 ff ff       	callq  2500 <nanosleep@plt>
    2fa8:	e8 8e 03 00 00       	callq  333b <prvDemonstrateTaskStateAndHandleGetFunctions>
    2fad:	e8 28 03 00 00       	callq  32da <prvDemonstratePendingFunctionCall>
    2fb2:	e8 17 02 00 00       	callq  31ce <prvDemonstrateTimerQueryFunctions>
    2fb7:	48 8b 05 3a e1 02 00 	mov    0x2e13a(%rip),%rax        # 310f8 <xMutexToDelete>
    2fbe:	48 85 c0             	test   %rax,%rax
    2fc1:	0f 84 bc 00 00 00    	je     3083 <vFullDemoIdleFunction+0x166>
    2fc7:	48 8b 05 2a e1 02 00 	mov    0x2e12a(%rip),%rax        # 310f8 <xMutexToDelete>
    2fce:	48 89 c7             	mov    %rax,%rdi
    2fd1:	e8 0b 57 00 00       	callq  86e1 <pcQueueGetName>
    2fd6:	48 85 c0             	test   %rax,%rax
    2fd9:	74 11                	je     2fec <vFullDemoIdleFunction+0xcf>
    2fdb:	be f5 01 00 00       	mov    $0x1f5,%esi
    2fe0:	48 8d 3d 3b 42 02 00 	lea    0x2423b(%rip),%rdi        # 27222 <_IO_stdin_used+0x222>
    2fe7:	e8 20 0d 00 00       	callq  3d0c <vAssertCalled>
    2fec:	48 8b 05 05 e1 02 00 	mov    0x2e105(%rip),%rax        # 310f8 <xMutexToDelete>
    2ff3:	48 8d 35 34 42 02 00 	lea    0x24234(%rip),%rsi        # 2722e <_IO_stdin_used+0x22e>
    2ffa:	48 89 c7             	mov    %rax,%rdi
    2ffd:	e8 b6 55 00 00       	callq  85b8 <vQueueAddToRegistry>
    3002:	48 8b 05 ef e0 02 00 	mov    0x2e0ef(%rip),%rax        # 310f8 <xMutexToDelete>
    3009:	48 89 c7             	mov    %rax,%rdi
    300c:	e8 d0 56 00 00       	callq  86e1 <pcQueueGetName>
    3011:	48 8d 35 16 42 02 00 	lea    0x24216(%rip),%rsi        # 2722e <_IO_stdin_used+0x22e>
    3018:	48 89 c7             	mov    %rax,%rdi
    301b:	e8 30 f5 ff ff       	callq  2550 <strcmp@plt>
    3020:	85 c0                	test   %eax,%eax
    3022:	74 11                	je     3035 <vFullDemoIdleFunction+0x118>
    3024:	be f7 01 00 00       	mov    $0x1f7,%esi
    3029:	48 8d 3d f2 41 02 00 	lea    0x241f2(%rip),%rdi        # 27222 <_IO_stdin_used+0x222>
    3030:	e8 d7 0c 00 00       	callq  3d0c <vAssertCalled>
    3035:	48 8b 05 bc e0 02 00 	mov    0x2e0bc(%rip),%rax        # 310f8 <xMutexToDelete>
    303c:	48 89 c7             	mov    %rax,%rdi
    303f:	e8 21 57 00 00       	callq  8765 <vQueueUnregisterQueue>
    3044:	48 8b 05 ad e0 02 00 	mov    0x2e0ad(%rip),%rax        # 310f8 <xMutexToDelete>
    304b:	48 89 c7             	mov    %rax,%rdi
    304e:	e8 8e 56 00 00       	callq  86e1 <pcQueueGetName>
    3053:	48 85 c0             	test   %rax,%rax
    3056:	74 11                	je     3069 <vFullDemoIdleFunction+0x14c>
    3058:	be f9 01 00 00       	mov    $0x1f9,%esi
    305d:	48 8d 3d be 41 02 00 	lea    0x241be(%rip),%rdi        # 27222 <_IO_stdin_used+0x222>
    3064:	e8 a3 0c 00 00       	callq  3d0c <vAssertCalled>
    3069:	48 8b 05 88 e0 02 00 	mov    0x2e088(%rip),%rax        # 310f8 <xMutexToDelete>
    3070:	48 89 c7             	mov    %rax,%rdi
    3073:	e8 76 4e 00 00       	callq  7eee <vQueueDelete>
    3078:	48 c7 05 75 e0 02 00 	movq   $0x0,0x2e075(%rip)        # 310f8 <xMutexToDelete>
    307f:	00 00 00 00 
    3083:	e8 98 f6 ff ff       	callq  2720 <rand@plt>
    3088:	48 63 d0             	movslq %eax,%rdx
    308b:	48 69 d2 d3 4d 62 10 	imul   $0x10624dd3,%rdx,%rdx
    3092:	48 c1 ea 20          	shr    $0x20,%rdx
    3096:	89 d1                	mov    %edx,%ecx
    3098:	c1 f9 05             	sar    $0x5,%ecx
    309b:	99                   	cltd   
    309c:	29 d1                	sub    %edx,%ecx
    309e:	89 ca                	mov    %ecx,%edx
    30a0:	69 d2 f4 01 00 00    	imul   $0x1f4,%edx,%edx
    30a6:	29 d0                	sub    %edx,%eax
    30a8:	89 c2                	mov    %eax,%edx
    30aa:	8d 42 01             	lea    0x1(%rdx),%eax
    30ad:	48 98                	cltq   
    30af:	48 89 c7             	mov    %rax,%rdi
    30b2:	e8 c9 f5 00 00       	callq  12680 <pvPortMalloc>
    30b7:	48 89 45 d8          	mov    %rax,-0x28(%rbp)
    30bb:	48 8b 45 d8          	mov    -0x28(%rbp),%rax
    30bf:	48 89 c7             	mov    %rax,%rdi
    30c2:	e8 d9 f6 00 00       	callq  127a0 <vPortFree>
    30c7:	90                   	nop
    30c8:	48 8b 45 f8          	mov    -0x8(%rbp),%rax
    30cc:	64 48 33 04 25 28 00 	xor    %fs:0x28,%rax
    30d3:	00 00 
    30d5:	74 05                	je     30dc <vFullDemoIdleFunction+0x1bf>
    30d7:	e8 f4 f3 ff ff       	callq  24d0 <__stack_chk_fail@plt>
    30dc:	c9                   	leaveq 
    30dd:	c3                   	retq   

00000000000030de <vFullDemoTickHookFunction>:
    30de:	f3 0f 1e fa          	endbr64 
    30e2:	55                   	push   %rbp
    30e3:	48 89 e5             	mov    %rsp,%rbp
    30e6:	48 83 ec 10          	sub    $0x10,%rsp
    30ea:	e8 22 f5 01 00       	callq  22611 <vTimerPeriodicISRTests>
    30ef:	e8 cd 7a 01 00       	callq  1abc1 <vQueueOverwritePeriodicISRDemo>
    30f4:	e8 3c 80 01 00       	callq  1b135 <vQueueSetAccessQueueSetFromISR>
    30f9:	e8 cb 91 01 00       	callq  1c2c9 <vQueueSetPollingInterruptAccess>
    30fe:	e8 74 36 01 00       	callq  16777 <vPeriodicEventGroupsProcessing>
    3103:	e8 b4 55 01 00       	callq  186bc <vInterruptSemaphorePeriodicTest>
    3108:	e8 ce e1 01 00       	callq  212db <xNotifyTaskFromISR>
    310d:	e8 82 cb 01 00       	callq  1fc94 <vPeriodicStreamBufferProcessing>
    3112:	e8 7d d1 01 00       	callq  20294 <vBasicStreamBufferSendFromISR>
    3117:	e8 59 e8 00 00       	callq  11975 <xTimerGetTimerDaemonTaskHandle>
    311c:	48 89 45 f8          	mov    %rax,-0x8(%rbp)
    3120:	48 8b 45 f8          	mov    -0x8(%rbp),%rax
    3124:	48 89 c7             	mov    %rax,%rdi
    3127:	e8 c1 98 00 00       	callq  c9ed <uxTaskPriorityGetFromISR>
    312c:	48 83 f8 06          	cmp    $0x6,%rax
    3130:	74 11                	je     3143 <vFullDemoTickHookFunction+0x65>
    3132:	be 48 02 00 00       	mov    $0x248,%esi
    3137:	48 8d 3d e4 40 02 00 	lea    0x240e4(%rip),%rdi        # 27222 <_IO_stdin_used+0x222>
    313e:	e8 c9 0b 00 00       	callq  3d0c <vAssertCalled>
    3143:	90                   	nop
    3144:	c9                   	leaveq 
    3145:	c3                   	retq   

0000000000003146 <prvPendedFunction>:
    3146:	f3 0f 1e fa          	endbr64 
    314a:	55                   	push   %rbp
    314b:	48 89 e5             	mov    %rsp,%rbp
    314e:	48 83 ec 20          	sub    $0x20,%rsp
    3152:	48 89 7d e8          	mov    %rdi,-0x18(%rbp)
    3156:	89 75 e4             	mov    %esi,-0x1c(%rbp)
    3159:	48 8b 45 e8          	mov    -0x18(%rbp),%rax
    315d:	48 89 45 f8          	mov    %rax,-0x8(%rbp)
    3161:	48 8b 05 a8 de 02 00 	mov    0x2dea8(%rip),%rax        # 31010 <ulLastParameter1.4297>
    3168:	48 83 c0 01          	add    $0x1,%rax
    316c:	48 39 45 f8          	cmp    %rax,-0x8(%rbp)
    3170:	74 11                	je     3183 <prvPendedFunction+0x3d>
    3172:	be 55 02 00 00       	mov    $0x255,%esi
    3177:	48 8d 3d a4 40 02 00 	lea    0x240a4(%rip),%rdi        # 27222 <_IO_stdin_used+0x222>
    317e:	e8 89 0b 00 00       	callq  3d0c <vAssertCalled>
    3183:	8b 45 e4             	mov    -0x1c(%rbp),%eax
    3186:	48 8b 15 73 df 02 00 	mov    0x2df73(%rip),%rdx        # 31100 <ulLastParameter2.4298>
    318d:	48 83 c2 01          	add    $0x1,%rdx
    3191:	48 39 d0             	cmp    %rdx,%rax
    3194:	74 11                	je     31a7 <prvPendedFunction+0x61>
    3196:	be 56 02 00 00       	mov    $0x256,%esi
    319b:	48 8d 3d 80 40 02 00 	lea    0x24080(%rip),%rdi        # 27222 <_IO_stdin_used+0x222>
    31a2:	e8 65 0b 00 00       	callq  3d0c <vAssertCalled>
    31a7:	48 8b 45 f8          	mov    -0x8(%rbp),%rax
    31ab:	48 89 05 5e de 02 00 	mov    %rax,0x2de5e(%rip)        # 31010 <ulLastParameter1.4297>
    31b2:	8b 45 e4             	mov    -0x1c(%rbp),%eax
    31b5:	48 89 05 44 df 02 00 	mov    %rax,0x2df44(%rip)        # 31100 <ulLastParameter2.4298>
    31bc:	90                   	nop
    31bd:	c9                   	leaveq 
    31be:	c3                   	retq   

00000000000031bf <prvTestTimerCallback>:
    31bf:	f3 0f 1e fa          	endbr64 
    31c3:	55                   	push   %rbp
    31c4:	48 89 e5             	mov    %rsp,%rbp
    31c7:	48 89 7d f8          	mov    %rdi,-0x8(%rbp)
    31cb:	90                   	nop
    31cc:	5d                   	pop    %rbp
    31cd:	c3                   	retq   

00000000000031ce <prvDemonstrateTimerQueryFunctions>:
    31ce:	f3 0f 1e fa          	endbr64 
    31d2:	55                   	push   %rbp
    31d3:	48 89 e5             	mov    %rsp,%rbp
    31d6:	48 83 ec 20          	sub    $0x20,%rsp
    31da:	48 8d 05 58 40 02 00 	lea    0x24058(%rip),%rax        # 27239 <_IO_stdin_used+0x239>
    31e1:	48 89 45 f0          	mov    %rax,-0x10(%rbp)
    31e5:	48 c7 45 f8 00 00 00 	movq   $0x0,-0x8(%rbp)
    31ec:	00 
    31ed:	48 8b 05 14 df 02 00 	mov    0x2df14(%rip),%rax        # 31108 <xTimer.4306>
    31f4:	48 85 c0             	test   %rax,%rax
    31f7:	75 5f                	jne    3258 <prvDemonstrateTimerQueryFunctions+0x8a>
    31f9:	48 8b 45 f0          	mov    -0x10(%rbp),%rax
    31fd:	4c 8d 05 bb ff ff ff 	lea    -0x45(%rip),%r8        # 31bf <prvTestTimerCallback>
    3204:	b9 00 00 00 00       	mov    $0x0,%ecx
    3209:	ba 01 00 00 00       	mov    $0x1,%edx
    320e:	48 c7 c6 ff ff ff ff 	mov    $0xffffffffffffffff,%rsi
    3215:	48 89 c7             	mov    %rax,%rdi
    3218:	e8 a8 e1 00 00       	callq  113c5 <xTimerCreate>
    321d:	48 89 05 e4 de 02 00 	mov    %rax,0x2dee4(%rip)        # 31108 <xTimer.4306>
    3224:	48 8b 05 dd de 02 00 	mov    0x2dedd(%rip),%rax        # 31108 <xTimer.4306>
    322b:	48 85 c0             	test   %rax,%rax
    322e:	74 28                	je     3258 <prvDemonstrateTimerQueryFunctions+0x8a>
    3230:	e8 63 a6 00 00       	callq  d898 <xTaskGetTickCount>
    3235:	48 89 c2             	mov    %rax,%rdx
    3238:	48 8b 05 c9 de 02 00 	mov    0x2dec9(%rip),%rax        # 31108 <xTimer.4306>
    323f:	48 8b 4d f8          	mov    -0x8(%rbp),%rcx
    3243:	49 89 c8             	mov    %rcx,%r8
    3246:	b9 00 00 00 00       	mov    $0x0,%ecx
    324b:	be 01 00 00 00       	mov    $0x1,%esi
    3250:	48 89 c7             	mov    %rax,%rdi
    3253:	e8 dd e3 00 00       	callq  11635 <xTimerGenericCommand>
    3258:	48 8b 05 a9 de 02 00 	mov    0x2dea9(%rip),%rax        # 31108 <xTimer.4306>
    325f:	48 85 c0             	test   %rax,%rax
    3262:	74 73                	je     32d7 <prvDemonstrateTimerQueryFunctions+0x109>
    3264:	48 8b 05 9d de 02 00 	mov    0x2de9d(%rip),%rax        # 31108 <xTimer.4306>
    326b:	48 89 c7             	mov    %rax,%rdi
    326e:	e8 82 e8 00 00       	callq  11af5 <pcTimerGetName>
    3273:	48 89 c2             	mov    %rax,%rdx
    3276:	48 8b 45 f0          	mov    -0x10(%rbp),%rax
    327a:	48 89 c6             	mov    %rax,%rsi
    327d:	48 89 d7             	mov    %rdx,%rdi
    3280:	e8 cb f2 ff ff       	callq  2550 <strcmp@plt>
    3285:	85 c0                	test   %eax,%eax
    3287:	74 11                	je     329a <prvDemonstrateTimerQueryFunctions+0xcc>
    3289:	be 80 02 00 00       	mov    $0x280,%esi
    328e:	48 8d 3d 8d 3f 02 00 	lea    0x23f8d(%rip),%rdi        # 27222 <_IO_stdin_used+0x222>
    3295:	e8 72 0a 00 00       	callq  3d0c <vAssertCalled>
    329a:	48 8b 05 67 de 02 00 	mov    0x2de67(%rip),%rax        # 31108 <xTimer.4306>
    32a1:	48 89 c7             	mov    %rax,%rdi
    32a4:	e8 fa e6 00 00       	callq  119a3 <xTimerGetPeriod>
    32a9:	48 83 f8 ff          	cmp    $0xffffffffffffffff,%rax
    32ad:	74 11                	je     32c0 <prvDemonstrateTimerQueryFunctions+0xf2>
    32af:	be 83 02 00 00       	mov    $0x283,%esi
    32b4:	48 8d 3d 67 3f 02 00 	lea    0x23f67(%rip),%rdi        # 27222 <_IO_stdin_used+0x222>
    32bb:	e8 4c 0a 00 00       	callq  3d0c <vAssertCalled>
    32c0:	48 8b 05 41 de 02 00 	mov    0x2de41(%rip),%rax        # 31108 <xTimer.4306>
    32c7:	48 89 c7             	mov    %rax,%rdi
    32ca:	e8 e4 e7 00 00       	callq  11ab3 <xTimerGetExpiryTime>
    32cf:	48 89 45 e8          	mov    %rax,-0x18(%rbp)
    32d3:	48 8b 45 e8          	mov    -0x18(%rbp),%rax
    32d7:	90                   	nop
    32d8:	c9                   	leaveq 
    32d9:	c3                   	retq   

00000000000032da <prvDemonstratePendingFunctionCall>:
    32da:	f3 0f 1e fa          	endbr64 
    32de:	55                   	push   %rbp
    32df:	48 89 e5             	mov    %rsp,%rbp
    32e2:	48 83 ec 10          	sub    $0x10,%rsp
    32e6:	48 c7 45 f8 00 00 00 	movq   $0x0,-0x8(%rbp)
    32ed:	00 
    32ee:	48 8b 05 23 dd 02 00 	mov    0x2dd23(%rip),%rax        # 31018 <ulParameter1.4313>
    32f5:	48 83 c0 01          	add    $0x1,%rax
    32f9:	48 89 05 18 dd 02 00 	mov    %rax,0x2dd18(%rip)        # 31018 <ulParameter1.4313>
    3300:	48 8b 05 09 de 02 00 	mov    0x2de09(%rip),%rax        # 31110 <ulParameter2.4314>
    3307:	48 83 c0 01          	add    $0x1,%rax
    330b:	48 89 05 fe dd 02 00 	mov    %rax,0x2ddfe(%rip)        # 31110 <ulParameter2.4314>
    3312:	48 8b 05 f7 dd 02 00 	mov    0x2ddf7(%rip),%rax        # 31110 <ulParameter2.4314>
    3319:	89 c2                	mov    %eax,%edx
    331b:	48 8b 05 f6 dc 02 00 	mov    0x2dcf6(%rip),%rax        # 31018 <ulParameter1.4313>
    3322:	48 89 c6             	mov    %rax,%rsi
    3325:	48 8b 45 f8          	mov    -0x8(%rbp),%rax
    3329:	48 89 c1             	mov    %rax,%rcx
    332c:	48 8d 3d 13 fe ff ff 	lea    -0x1ed(%rip),%rdi        # 3146 <prvPendedFunction>
    3333:	e8 b9 f1 00 00       	callq  124f1 <xTimerPendFunctionCall>
    3338:	90                   	nop
    3339:	c9                   	leaveq 
    333a:	c3                   	retq   

000000000000333b <prvDemonstrateTaskStateAndHandleGetFunctions>:
    333b:	f3 0f 1e fa          	endbr64 
    333f:	55                   	push   %rbp
    3340:	48 89 e5             	mov    %rsp,%rbp
    3343:	48 83 ec 70          	sub    $0x70,%rsp
    3347:	64 48 8b 04 25 28 00 	mov    %fs:0x28,%rax
    334e:	00 00 
    3350:	48 89 45 f8          	mov    %rax,-0x8(%rbp)
    3354:	31 c0                	xor    %eax,%eax
    3356:	e8 cc a9 00 00       	callq  dd27 <xTaskGetIdleTaskHandle>
    335b:	48 89 45 98          	mov    %rax,-0x68(%rbp)
    335f:	e8 11 e6 00 00       	callq  11975 <xTimerGetTimerDaemonTaskHandle>
    3364:	48 89 45 a0          	mov    %rax,-0x60(%rbp)
    3368:	e8 11 c3 00 00       	callq  f67e <xTaskGetCurrentTaskHandle>
    336d:	48 39 45 98          	cmp    %rax,-0x68(%rbp)
    3371:	74 1d                	je     3390 <prvDemonstrateTaskStateAndHandleGetFunctions+0x55>
    3373:	48 8d 05 ce 3e 02 00 	lea    0x23ece(%rip),%rax        # 27248 <_IO_stdin_used+0x248>
    337a:	48 89 05 9f dc 02 00 	mov    %rax,0x2dc9f(%rip)        # 31020 <pcStatusMessage>
    3381:	8b 05 69 dd 02 00    	mov    0x2dd69(%rip),%eax        # 310f0 <xErrorCount>
    3387:	83 c0 01             	add    $0x1,%eax
    338a:	89 05 60 dd 02 00    	mov    %eax,0x2dd60(%rip)        # 310f0 <xErrorCount>
    3390:	48 8d 3d e1 3e 02 00 	lea    0x23ee1(%rip),%rdi        # 27278 <_IO_stdin_used+0x278>
    3397:	e8 f1 a6 00 00       	callq  da8d <xTaskGetHandle>
    339c:	48 39 45 98          	cmp    %rax,-0x68(%rbp)
    33a0:	75 1d                	jne    33bf <prvDemonstrateTaskStateAndHandleGetFunctions+0x84>
    33a2:	48 8d 05 d7 3e 02 00 	lea    0x23ed7(%rip),%rax        # 27280 <_IO_stdin_used+0x280>
    33a9:	48 89 05 70 dc 02 00 	mov    %rax,0x2dc70(%rip)        # 31020 <pcStatusMessage>
    33b0:	8b 05 3a dd 02 00    	mov    0x2dd3a(%rip),%eax        # 310f0 <xErrorCount>
    33b6:	83 c0 01             	add    $0x1,%eax
    33b9:	89 05 31 dd 02 00    	mov    %eax,0x2dd31(%rip)        # 310f0 <xErrorCount>
    33bf:	48 8d 3d ee 3e 02 00 	lea    0x23eee(%rip),%rdi        # 272b4 <_IO_stdin_used+0x2b4>
    33c6:	e8 c2 a6 00 00       	callq  da8d <xTaskGetHandle>
    33cb:	48 39 45 98          	cmp    %rax,-0x68(%rbp)
    33cf:	74 1d                	je     33ee <prvDemonstrateTaskStateAndHandleGetFunctions+0xb3>
    33d1:	48 8d 05 a8 3e 02 00 	lea    0x23ea8(%rip),%rax        # 27280 <_IO_stdin_used+0x280>
    33d8:	48 89 05 41 dc 02 00 	mov    %rax,0x2dc41(%rip)        # 31020 <pcStatusMessage>
    33df:	8b 05 0b dd 02 00    	mov    0x2dd0b(%rip),%eax        # 310f0 <xErrorCount>
    33e5:	83 c0 01             	add    $0x1,%eax
    33e8:	89 05 02 dd 02 00    	mov    %eax,0x2dd02(%rip)        # 310f0 <xErrorCount>
    33ee:	48 8b 45 a0          	mov    -0x60(%rbp),%rax
    33f2:	48 89 c7             	mov    %rax,%rdi
    33f5:	e8 e9 a4 00 00       	callq  d8e3 <pcTaskGetName>
    33fa:	48 89 45 a8          	mov    %rax,-0x58(%rbp)
    33fe:	48 8b 45 a8          	mov    -0x58(%rbp),%rax
    3402:	48 8d 35 b0 3e 02 00 	lea    0x23eb0(%rip),%rsi        # 272b9 <_IO_stdin_used+0x2b9>
    3409:	48 89 c7             	mov    %rax,%rdi
    340c:	e8 3f f1 ff ff       	callq  2550 <strcmp@plt>
    3411:	85 c0                	test   %eax,%eax
    3413:	74 1d                	je     3432 <prvDemonstrateTaskStateAndHandleGetFunctions+0xf7>
    3415:	48 8d 05 ac 3e 02 00 	lea    0x23eac(%rip),%rax        # 272c8 <_IO_stdin_used+0x2c8>
    341c:	48 89 05 fd db 02 00 	mov    %rax,0x2dbfd(%rip)        # 31020 <pcStatusMessage>
    3423:	8b 05 c7 dc 02 00    	mov    0x2dcc7(%rip),%eax        # 310f0 <xErrorCount>
    3429:	83 c0 01             	add    $0x1,%eax
    342c:	89 05 be dc 02 00    	mov    %eax,0x2dcbe(%rip)        # 310f0 <xErrorCount>
    3432:	48 8d 3d 80 3e 02 00 	lea    0x23e80(%rip),%rdi        # 272b9 <_IO_stdin_used+0x2b9>
    3439:	e8 4f a6 00 00       	callq  da8d <xTaskGetHandle>
    343e:	48 39 45 a0          	cmp    %rax,-0x60(%rbp)
    3442:	74 1d                	je     3461 <prvDemonstrateTaskStateAndHandleGetFunctions+0x126>
    3444:	48 8d 05 b5 3e 02 00 	lea    0x23eb5(%rip),%rax        # 27300 <_IO_stdin_used+0x300>
    344b:	48 89 05 ce db 02 00 	mov    %rax,0x2dbce(%rip)        # 31020 <pcStatusMessage>
    3452:	8b 05 98 dc 02 00    	mov    0x2dc98(%rip),%eax        # 310f0 <xErrorCount>
    3458:	83 c0 01             	add    $0x1,%eax
    345b:	89 05 8f dc 02 00    	mov    %eax,0x2dc8f(%rip)        # 310f0 <xErrorCount>
    3461:	48 8b 45 98          	mov    -0x68(%rbp),%rax
    3465:	48 89 c7             	mov    %rax,%rdi
    3468:	e8 1b 94 00 00       	callq  c888 <eTaskGetState>
    346d:	85 c0                	test   %eax,%eax
    346f:	74 1d                	je     348e <prvDemonstrateTaskStateAndHandleGetFunctions+0x153>
    3471:	48 8d 05 c0 3e 02 00 	lea    0x23ec0(%rip),%rax        # 27338 <_IO_stdin_used+0x338>
    3478:	48 89 05 a1 db 02 00 	mov    %rax,0x2dba1(%rip)        # 31020 <pcStatusMessage>
    347f:	8b 05 6b dc 02 00    	mov    0x2dc6b(%rip),%eax        # 310f0 <xErrorCount>
    3485:	83 c0 01             	add    $0x1,%eax
    3488:	89 05 62 dc 02 00    	mov    %eax,0x2dc62(%rip)        # 310f0 <xErrorCount>
    348e:	48 8b 45 a0          	mov    -0x60(%rbp),%rax
    3492:	48 89 c7             	mov    %rax,%rdi
    3495:	e8 ee 93 00 00       	callq  c888 <eTaskGetState>
    349a:	83 f8 02             	cmp    $0x2,%eax
    349d:	74 1d                	je     34bc <prvDemonstrateTaskStateAndHandleGetFunctions+0x181>
    349f:	48 8d 05 c2 3e 02 00 	lea    0x23ec2(%rip),%rax        # 27368 <_IO_stdin_used+0x368>
    34a6:	48 89 05 73 db 02 00 	mov    %rax,0x2db73(%rip)        # 31020 <pcStatusMessage>
    34ad:	8b 05 3d dc 02 00    	mov    0x2dc3d(%rip),%eax        # 310f0 <xErrorCount>
    34b3:	83 c0 01             	add    $0x1,%eax
    34b6:	89 05 34 dc 02 00    	mov    %eax,0x2dc34(%rip)        # 310f0 <xErrorCount>
    34bc:	48 8d 75 b0          	lea    -0x50(%rbp),%rsi
    34c0:	48 8b 45 a0          	mov    -0x60(%rbp),%rax
    34c4:	b9 05 00 00 00       	mov    $0x5,%ecx
    34c9:	ba 01 00 00 00       	mov    $0x1,%edx
    34ce:	48 89 c7             	mov    %rax,%rdi
    34d1:	e8 bc bd 00 00       	callq  f292 <vTaskGetInfo>
    34d6:	8b 45 c8             	mov    -0x38(%rbp),%eax
    34d9:	83 f8 02             	cmp    $0x2,%eax
    34dc:	75 3b                	jne    3519 <prvDemonstrateTaskStateAndHandleGetFunctions+0x1de>
    34de:	48 8b 45 b8          	mov    -0x48(%rbp),%rax
    34e2:	48 8d 35 d0 3d 02 00 	lea    0x23dd0(%rip),%rsi        # 272b9 <_IO_stdin_used+0x2b9>
    34e9:	48 89 c7             	mov    %rax,%rdi
    34ec:	e8 5f f0 ff ff       	callq  2550 <strcmp@plt>
    34f1:	85 c0                	test   %eax,%eax
    34f3:	75 24                	jne    3519 <prvDemonstrateTaskStateAndHandleGetFunctions+0x1de>
    34f5:	48 8b 45 d0          	mov    -0x30(%rbp),%rax
    34f9:	48 83 f8 06          	cmp    $0x6,%rax
    34fd:	75 1a                	jne    3519 <prvDemonstrateTaskStateAndHandleGetFunctions+0x1de>
    34ff:	48 8b 45 e8          	mov    -0x18(%rbp),%rax
    3503:	48 8d 15 56 40 13 00 	lea    0x134056(%rip),%rdx        # 137560 <uxTimerTaskStack>
    350a:	48 39 d0             	cmp    %rdx,%rax
    350d:	75 0a                	jne    3519 <prvDemonstrateTaskStateAndHandleGetFunctions+0x1de>
    350f:	48 8b 45 b0          	mov    -0x50(%rbp),%rax
    3513:	48 39 45 a0          	cmp    %rax,-0x60(%rbp)
    3517:	74 1d                	je     3536 <prvDemonstrateTaskStateAndHandleGetFunctions+0x1fb>
    3519:	48 8d 05 78 3e 02 00 	lea    0x23e78(%rip),%rax        # 27398 <_IO_stdin_used+0x398>
    3520:	48 89 05 f9 da 02 00 	mov    %rax,0x2daf9(%rip)        # 31020 <pcStatusMessage>
    3527:	8b 05 c3 db 02 00    	mov    0x2dbc3(%rip),%eax        # 310f0 <xErrorCount>
    352d:	83 c0 01             	add    $0x1,%eax
    3530:	89 05 ba db 02 00    	mov    %eax,0x2dbba(%rip)        # 310f0 <xErrorCount>
    3536:	48 8b 05 db db 02 00 	mov    0x2dbdb(%rip),%rax        # 31118 <xPerformedOneShotTests.4322>
    353d:	48 85 c0             	test   %rax,%rax
    3540:	0f 85 e1 00 00 00    	jne    3627 <prvDemonstrateTaskStateAndHandleGetFunctions+0x2ec>
    3546:	48 c7 05 c7 db 02 00 	movq   $0x1,0x2dbc7(%rip)        # 31118 <xPerformedOneShotTests.4322>
    354d:	01 00 00 00 
    3551:	48 8d 45 90          	lea    -0x70(%rbp),%rax
    3555:	49 89 c1             	mov    %rax,%r9
    3558:	41 b8 00 00 00 00    	mov    $0x0,%r8d
    355e:	b9 00 00 00 00       	mov    $0x0,%ecx
    3563:	ba 46 00 00 00       	mov    $0x46,%edx
    3568:	48 8d 35 74 3e 02 00 	lea    0x23e74(%rip),%rsi        # 273e3 <_IO_stdin_used+0x3e3>
    356f:	48 8d 3d 16 f9 ff ff 	lea    -0x6ea(%rip),%rdi        # 2e8c <prvTestTask>
    3576:	e8 7c 87 00 00       	callq  bcf7 <xTaskCreate>
    357b:	48 83 f8 01          	cmp    $0x1,%rax
    357f:	0f 85 a2 00 00 00    	jne    3627 <prvDemonstrateTaskStateAndHandleGetFunctions+0x2ec>
    3585:	48 8b 45 90          	mov    -0x70(%rbp),%rax
    3589:	48 89 c7             	mov    %rax,%rdi
    358c:	e8 f7 92 00 00       	callq  c888 <eTaskGetState>
    3591:	83 f8 01             	cmp    $0x1,%eax
    3594:	74 1d                	je     35b3 <prvDemonstrateTaskStateAndHandleGetFunctions+0x278>
    3596:	48 8d 05 4b 3e 02 00 	lea    0x23e4b(%rip),%rax        # 273e8 <_IO_stdin_used+0x3e8>
    359d:	48 89 05 7c da 02 00 	mov    %rax,0x2da7c(%rip)        # 31020 <pcStatusMessage>
    35a4:	8b 05 46 db 02 00    	mov    0x2db46(%rip),%eax        # 310f0 <xErrorCount>
    35aa:	83 c0 01             	add    $0x1,%eax
    35ad:	89 05 3d db 02 00    	mov    %eax,0x2db3d(%rip)        # 310f0 <xErrorCount>
    35b3:	48 8b 45 90          	mov    -0x70(%rbp),%rax
    35b7:	48 89 c7             	mov    %rax,%rdi
    35ba:	e8 a2 97 00 00       	callq  cd61 <vTaskSuspend>
    35bf:	48 8b 45 90          	mov    -0x70(%rbp),%rax
    35c3:	48 89 c7             	mov    %rax,%rdi
    35c6:	e8 bd 92 00 00       	callq  c888 <eTaskGetState>
    35cb:	83 f8 03             	cmp    $0x3,%eax
    35ce:	74 1d                	je     35ed <prvDemonstrateTaskStateAndHandleGetFunctions+0x2b2>
    35d0:	48 8d 05 41 3e 02 00 	lea    0x23e41(%rip),%rax        # 27418 <_IO_stdin_used+0x418>
    35d7:	48 89 05 42 da 02 00 	mov    %rax,0x2da42(%rip)        # 31020 <pcStatusMessage>
    35de:	8b 05 0c db 02 00    	mov    0x2db0c(%rip),%eax        # 310f0 <xErrorCount>
    35e4:	83 c0 01             	add    $0x1,%eax
    35e7:	89 05 03 db 02 00    	mov    %eax,0x2db03(%rip)        # 310f0 <xErrorCount>
    35ed:	48 8b 45 90          	mov    -0x70(%rbp),%rax
    35f1:	48 89 c7             	mov    %rax,%rdi
    35f4:	e8 d8 8c 00 00       	callq  c2d1 <vTaskDelete>
    35f9:	48 8b 45 90          	mov    -0x70(%rbp),%rax
    35fd:	48 89 c7             	mov    %rax,%rdi
    3600:	e8 83 92 00 00       	callq  c888 <eTaskGetState>
    3605:	83 f8 04             	cmp    $0x4,%eax
    3608:	74 1d                	je     3627 <prvDemonstrateTaskStateAndHandleGetFunctions+0x2ec>
    360a:	48 8d 05 37 3e 02 00 	lea    0x23e37(%rip),%rax        # 27448 <_IO_stdin_used+0x448>
    3611:	48 89 05 08 da 02 00 	mov    %rax,0x2da08(%rip)        # 31020 <pcStatusMessage>
    3618:	8b 05 d2 da 02 00    	mov    0x2dad2(%rip),%eax        # 310f0 <xErrorCount>
    361e:	83 c0 01             	add    $0x1,%eax
    3621:	89 05 c9 da 02 00    	mov    %eax,0x2dac9(%rip)        # 310f0 <xErrorCount>
    3627:	90                   	nop
    3628:	48 8b 45 f8          	mov    -0x8(%rbp),%rax
    362c:	64 48 33 04 25 28 00 	xor    %fs:0x28,%rax
    3633:	00 00 
    3635:	74 05                	je     363c <prvDemonstrateTaskStateAndHandleGetFunctions+0x301>
    3637:	e8 94 ee ff ff       	callq  24d0 <__stack_chk_fail@plt>
    363c:	c9                   	leaveq 
    363d:	c3                   	retq   

000000000000363e <prvDemoQueueSpaceFunctions>:
    363e:	f3 0f 1e fa          	endbr64 
    3642:	55                   	push   %rbp
    3643:	48 89 e5             	mov    %rsp,%rbp
    3646:	48 83 ec 30          	sub    $0x30,%rsp
    364a:	48 89 7d d8          	mov    %rdi,-0x28(%rbp)
    364e:	48 c7 45 e8 00 00 00 	movq   $0x0,-0x18(%rbp)
    3655:	00 
    3656:	48 c7 45 f0 0a 00 00 	movq   $0xa,-0x10(%rbp)
    365d:	00 
    365e:	48 8b 45 f0          	mov    -0x10(%rbp),%rax
    3662:	ba 00 00 00 00       	mov    $0x0,%edx
    3667:	be 00 00 00 00       	mov    $0x0,%esi
    366c:	48 89 c7             	mov    %rax,%rdi
    366f:	e8 7f 1f 00 00       	callq  55f3 <xQueueGenericCreate>
    3674:	48 89 45 e8          	mov    %rax,-0x18(%rbp)
    3678:	48 83 7d e8 00       	cmpq   $0x0,-0x18(%rbp)
    367d:	75 11                	jne    3690 <prvDemoQueueSpaceFunctions+0x52>
    367f:	be 28 03 00 00       	mov    $0x328,%esi
    3684:	48 8d 3d 97 3b 02 00 	lea    0x23b97(%rip),%rdi        # 27222 <_IO_stdin_used+0x222>
    368b:	e8 7c 06 00 00       	callq  3d0c <vAssertCalled>
    3690:	48 c7 45 e0 00 00 00 	movq   $0x0,-0x20(%rbp)
    3697:	00 
    3698:	e9 88 00 00 00       	jmpq   3725 <prvDemoQueueSpaceFunctions+0xe7>
    369d:	48 8b 45 e8          	mov    -0x18(%rbp),%rax
    36a1:	48 89 c7             	mov    %rax,%rdi
    36a4:	e8 65 47 00 00       	callq  7e0e <uxQueueMessagesWaiting>
    36a9:	48 89 45 f8          	mov    %rax,-0x8(%rbp)
    36ad:	48 8b 45 f8          	mov    -0x8(%rbp),%rax
    36b1:	48 3b 45 e0          	cmp    -0x20(%rbp),%rax
    36b5:	74 18                	je     36cf <prvDemoQueueSpaceFunctions+0x91>
    36b7:	48 83 7d e8 00       	cmpq   $0x0,-0x18(%rbp)
    36bc:	74 11                	je     36cf <prvDemoQueueSpaceFunctions+0x91>
    36be:	be 37 03 00 00       	mov    $0x337,%esi
    36c3:	48 8d 3d 58 3b 02 00 	lea    0x23b58(%rip),%rdi        # 27222 <_IO_stdin_used+0x222>
    36ca:	e8 3d 06 00 00       	callq  3d0c <vAssertCalled>
    36cf:	48 8b 45 e8          	mov    -0x18(%rbp),%rax
    36d3:	48 89 c7             	mov    %rax,%rdi
    36d6:	e8 77 47 00 00       	callq  7e52 <uxQueueSpacesAvailable>
    36db:	48 89 45 f8          	mov    %rax,-0x8(%rbp)
    36df:	48 8b 45 f0          	mov    -0x10(%rbp),%rax
    36e3:	48 2b 45 e0          	sub    -0x20(%rbp),%rax
    36e7:	48 39 45 f8          	cmp    %rax,-0x8(%rbp)
    36eb:	74 18                	je     3705 <prvDemoQueueSpaceFunctions+0xc7>
    36ed:	48 83 7d e8 00       	cmpq   $0x0,-0x18(%rbp)
    36f2:	74 11                	je     3705 <prvDemoQueueSpaceFunctions+0xc7>
    36f4:	be 43 03 00 00       	mov    $0x343,%esi
    36f9:	48 8d 3d 22 3b 02 00 	lea    0x23b22(%rip),%rdi        # 27222 <_IO_stdin_used+0x222>
    3700:	e8 07 06 00 00       	callq  3d0c <vAssertCalled>
    3705:	48 8b 45 e8          	mov    -0x18(%rbp),%rax
    3709:	b9 00 00 00 00       	mov    $0x0,%ecx
    370e:	ba 00 00 00 00       	mov    $0x0,%edx
    3713:	be 00 00 00 00       	mov    $0x0,%esi
    3718:	48 89 c7             	mov    %rax,%rdi
    371b:	e8 77 26 00 00       	callq  5d97 <xQueueGenericSend>
    3720:	48 83 45 e0 01       	addq   $0x1,-0x20(%rbp)
    3725:	48 8b 45 e0          	mov    -0x20(%rbp),%rax
    3729:	48 3b 45 f0          	cmp    -0x10(%rbp),%rax
    372d:	0f 82 6a ff ff ff    	jb     369d <prvDemoQueueSpaceFunctions+0x5f>
    3733:	48 8b 45 e8          	mov    -0x18(%rbp),%rax
    3737:	48 89 c7             	mov    %rax,%rdi
    373a:	e8 cf 46 00 00       	callq  7e0e <uxQueueMessagesWaiting>
    373f:	48 89 45 f8          	mov    %rax,-0x8(%rbp)
    3743:	48 8b 45 f8          	mov    -0x8(%rbp),%rax
    3747:	48 3b 45 f0          	cmp    -0x10(%rbp),%rax
    374b:	74 18                	je     3765 <prvDemoQueueSpaceFunctions+0x127>
    374d:	48 83 7d e8 00       	cmpq   $0x0,-0x18(%rbp)
    3752:	74 11                	je     3765 <prvDemoQueueSpaceFunctions+0x127>
    3754:	be 4f 03 00 00       	mov    $0x34f,%esi
    3759:	48 8d 3d c2 3a 02 00 	lea    0x23ac2(%rip),%rdi        # 27222 <_IO_stdin_used+0x222>
    3760:	e8 a7 05 00 00       	callq  3d0c <vAssertCalled>
    3765:	48 8b 45 e8          	mov    -0x18(%rbp),%rax
    3769:	48 89 c7             	mov    %rax,%rdi
    376c:	e8 e1 46 00 00       	callq  7e52 <uxQueueSpacesAvailable>
    3771:	48 89 45 f8          	mov    %rax,-0x8(%rbp)
    3775:	48 83 7d f8 00       	cmpq   $0x0,-0x8(%rbp)
    377a:	74 18                	je     3794 <prvDemoQueueSpaceFunctions+0x156>
    377c:	48 83 7d e8 00       	cmpq   $0x0,-0x18(%rbp)
    3781:	74 11                	je     3794 <prvDemoQueueSpaceFunctions+0x156>
    3783:	be 56 03 00 00       	mov    $0x356,%esi
    3788:	48 8d 3d 93 3a 02 00 	lea    0x23a93(%rip),%rdi        # 27222 <_IO_stdin_used+0x222>
    378f:	e8 78 05 00 00       	callq  3d0c <vAssertCalled>
    3794:	48 8b 45 e8          	mov    -0x18(%rbp),%rax
    3798:	be 00 00 00 00       	mov    $0x0,%esi
    379d:	48 89 c7             	mov    %rax,%rdi
    37a0:	e8 d4 1b 00 00       	callq  5379 <xQueueGenericReset>
    37a5:	e9 e6 fe ff ff       	jmpq   3690 <prvDemoQueueSpaceFunctions+0x52>

00000000000037aa <prvPermanentlyBlockingSemaphoreTask>:
    37aa:	f3 0f 1e fa          	endbr64 
    37ae:	55                   	push   %rbp
    37af:	48 89 e5             	mov    %rsp,%rbp
    37b2:	48 83 ec 20          	sub    $0x20,%rsp
    37b6:	48 89 7d e8          	mov    %rdi,-0x18(%rbp)
    37ba:	ba 03 00 00 00       	mov    $0x3,%edx
    37bf:	be 00 00 00 00       	mov    $0x0,%esi
    37c4:	bf 01 00 00 00       	mov    $0x1,%edi
    37c9:	e8 25 1e 00 00       	callq  55f3 <xQueueGenericCreate>
    37ce:	48 89 45 f8          	mov    %rax,-0x8(%rbp)
    37d2:	48 83 7d f8 00       	cmpq   $0x0,-0x8(%rbp)
    37d7:	75 11                	jne    37ea <prvPermanentlyBlockingSemaphoreTask+0x40>
    37d9:	be 6d 03 00 00       	mov    $0x36d,%esi
    37de:	48 8d 3d 3d 3a 02 00 	lea    0x23a3d(%rip),%rdi        # 27222 <_IO_stdin_used+0x222>
    37e5:	e8 22 05 00 00       	callq  3d0c <vAssertCalled>
    37ea:	48 8b 45 f8          	mov    -0x8(%rbp),%rax
    37ee:	48 c7 c6 ff ff ff ff 	mov    $0xffffffffffffffff,%rsi
    37f5:	48 89 c7             	mov    %rax,%rdi
    37f8:	e8 77 37 00 00       	callq  6f74 <xQueueSemaphoreTake>
    37fd:	48 83 7d e8 00       	cmpq   $0x0,-0x18(%rbp)
    3802:	75 11                	jne    3815 <prvPermanentlyBlockingSemaphoreTask+0x6b>
    3804:	be 73 03 00 00       	mov    $0x373,%esi
    3809:	48 8d 3d 12 3a 02 00 	lea    0x23a12(%rip),%rdi        # 27222 <_IO_stdin_used+0x222>
    3810:	e8 f7 04 00 00       	callq  3d0c <vAssertCalled>
    3815:	bf 00 00 00 00       	mov    $0x0,%edi
    381a:	e8 b2 8a 00 00       	callq  c2d1 <vTaskDelete>
    381f:	90                   	nop
    3820:	c9                   	leaveq 
    3821:	c3                   	retq   

0000000000003822 <prvPermanentlyBlockingNotificationTask>:
    3822:	f3 0f 1e fa          	endbr64 
    3826:	55                   	push   %rbp
    3827:	48 89 e5             	mov    %rsp,%rbp
    382a:	48 83 ec 10          	sub    $0x10,%rsp
    382e:	48 89 7d f8          	mov    %rdi,-0x8(%rbp)
    3832:	48 c7 c2 ff ff ff ff 	mov    $0xffffffffffffffff,%rdx
    3839:	be 01 00 00 00       	mov    $0x1,%esi
    383e:	bf 00 00 00 00       	mov    $0x0,%edi
    3843:	e8 5e c7 00 00       	callq  ffa6 <ulTaskGenericNotifyTake>
    3848:	48 83 7d f8 00       	cmpq   $0x0,-0x8(%rbp)
    384d:	75 11                	jne    3860 <prvPermanentlyBlockingNotificationTask+0x3e>
    384f:	be 83 03 00 00       	mov    $0x383,%esi
    3854:	48 8d 3d c7 39 02 00 	lea    0x239c7(%rip),%rdi        # 27222 <_IO_stdin_used+0x222>
    385b:	e8 ac 04 00 00       	callq  3d0c <vAssertCalled>
    3860:	bf 00 00 00 00       	mov    $0x0,%edi
    3865:	e8 67 8a 00 00       	callq  c2d1 <vTaskDelete>
    386a:	90                   	nop
    386b:	c9                   	leaveq 
    386c:	c3                   	retq   

000000000000386d <prvReloadModeTestTimerCallback>:
    386d:	f3 0f 1e fa          	endbr64 
    3871:	55                   	push   %rbp
    3872:	48 89 e5             	mov    %rsp,%rbp
    3875:	48 83 ec 20          	sub    $0x20,%rsp
    3879:	48 89 7d e8          	mov    %rdi,-0x18(%rbp)
    387d:	48 8b 45 e8          	mov    -0x18(%rbp),%rax
    3881:	48 89 c7             	mov    %rax,%rdi
    3884:	e8 18 eb 00 00       	callq  123a1 <pvTimerGetTimerID>
    3889:	48 89 45 f8          	mov    %rax,-0x8(%rbp)
    388d:	48 83 45 f8 01       	addq   $0x1,-0x8(%rbp)
    3892:	48 8b 55 f8          	mov    -0x8(%rbp),%rdx
    3896:	48 8b 45 e8          	mov    -0x18(%rbp),%rax
    389a:	48 89 d6             	mov    %rdx,%rsi
    389d:	48 89 c7             	mov    %rax,%rdi
    38a0:	e8 48 eb 00 00       	callq  123ed <vTimerSetTimerID>
    38a5:	90                   	nop
    38a6:	c9                   	leaveq 
    38a7:	c3                   	retq   

00000000000038a8 <prvDemonstrateChangingTimerReloadMode>:
    38a8:	f3 0f 1e fa          	endbr64 
    38ac:	55                   	push   %rbp
    38ad:	48 89 e5             	mov    %rsp,%rbp
    38b0:	48 83 ec 30          	sub    $0x30,%rsp
    38b4:	48 89 7d d8          	mov    %rdi,-0x28(%rbp)
    38b8:	48 8d 05 7a 39 02 00 	lea    0x2397a(%rip),%rax        # 27239 <_IO_stdin_used+0x239>
    38bf:	48 89 45 e8          	mov    %rax,-0x18(%rbp)
    38c3:	48 c7 45 f0 64 00 00 	movq   $0x64,-0x10(%rbp)
    38ca:	00 
    38cb:	48 8b 75 f0          	mov    -0x10(%rbp),%rsi
    38cf:	48 8b 45 e8          	mov    -0x18(%rbp),%rax
    38d3:	4c 8d 05 93 ff ff ff 	lea    -0x6d(%rip),%r8        # 386d <prvReloadModeTestTimerCallback>
    38da:	b9 00 00 00 00       	mov    $0x0,%ecx
    38df:	ba 00 00 00 00       	mov    $0x0,%edx
    38e4:	48 89 c7             	mov    %rax,%rdi
    38e7:	e8 d9 da 00 00       	callq  113c5 <xTimerCreate>
    38ec:	48 89 45 f8          	mov    %rax,-0x8(%rbp)
    38f0:	48 83 7d f8 00       	cmpq   $0x0,-0x8(%rbp)
    38f5:	75 11                	jne    3908 <prvDemonstrateChangingTimerReloadMode+0x60>
    38f7:	be a1 03 00 00       	mov    $0x3a1,%esi
    38fc:	48 8d 3d 1f 39 02 00 	lea    0x2391f(%rip),%rdi        # 27222 <_IO_stdin_used+0x222>
    3903:	e8 04 04 00 00       	callq  3d0c <vAssertCalled>
    3908:	48 8b 45 f8          	mov    -0x8(%rbp),%rax
    390c:	48 89 c7             	mov    %rax,%rdi
    390f:	e8 29 ea 00 00       	callq  1233d <xTimerIsTimerActive>
    3914:	48 85 c0             	test   %rax,%rax
    3917:	74 11                	je     392a <prvDemonstrateChangingTimerReloadMode+0x82>
    3919:	be a2 03 00 00       	mov    $0x3a2,%esi
    391e:	48 8d 3d fd 38 02 00 	lea    0x238fd(%rip),%rdi        # 27222 <_IO_stdin_used+0x222>
    3925:	e8 e2 03 00 00       	callq  3d0c <vAssertCalled>
    392a:	e8 46 e0 00 00       	callq  11975 <xTimerGetTimerDaemonTaskHandle>
    392f:	48 85 c0             	test   %rax,%rax
    3932:	75 11                	jne    3945 <prvDemonstrateChangingTimerReloadMode+0x9d>
    3934:	be a3 03 00 00       	mov    $0x3a3,%esi
    3939:	48 8d 3d e2 38 02 00 	lea    0x238e2(%rip),%rdi        # 27222 <_IO_stdin_used+0x222>
    3940:	e8 c7 03 00 00       	callq  3d0c <vAssertCalled>
    3945:	48 8b 45 f8          	mov    -0x8(%rbp),%rax
    3949:	48 89 c7             	mov    %rax,%rdi
    394c:	e8 a4 e1 00 00       	callq  11af5 <pcTimerGetName>
    3951:	48 89 c2             	mov    %rax,%rdx
    3954:	48 8b 45 e8          	mov    -0x18(%rbp),%rax
    3958:	48 89 d6             	mov    %rdx,%rsi
    395b:	48 89 c7             	mov    %rax,%rdi
    395e:	e8 ed eb ff ff       	callq  2550 <strcmp@plt>
    3963:	85 c0                	test   %eax,%eax
    3965:	74 11                	je     3978 <prvDemonstrateChangingTimerReloadMode+0xd0>
    3967:	be a4 03 00 00       	mov    $0x3a4,%esi
    396c:	48 8d 3d af 38 02 00 	lea    0x238af(%rip),%rdi        # 27222 <_IO_stdin_used+0x222>
    3973:	e8 94 03 00 00       	callq  3d0c <vAssertCalled>
    3978:	48 8b 45 f8          	mov    -0x8(%rbp),%rax
    397c:	48 89 c7             	mov    %rax,%rdi
    397f:	e8 1f e0 00 00       	callq  119a3 <xTimerGetPeriod>
    3984:	48 39 45 f0          	cmp    %rax,-0x10(%rbp)
    3988:	74 11                	je     399b <prvDemonstrateChangingTimerReloadMode+0xf3>
    398a:	be a5 03 00 00       	mov    $0x3a5,%esi
    398f:	48 8d 3d 8c 38 02 00 	lea    0x2388c(%rip),%rdi        # 27222 <_IO_stdin_used+0x222>
    3996:	e8 71 03 00 00       	callq  3d0c <vAssertCalled>
    399b:	48 8b 45 f8          	mov    -0x8(%rbp),%rax
    399f:	be 00 00 00 00       	mov    $0x0,%esi
    39a4:	48 89 c7             	mov    %rax,%rdi
    39a7:	e8 41 ea 00 00       	callq  123ed <vTimerSetTimerID>
    39ac:	e8 e7 9e 00 00       	callq  d898 <xTaskGetTickCount>
    39b1:	48 89 c2             	mov    %rax,%rdx
    39b4:	48 8b 45 f8          	mov    -0x8(%rbp),%rax
    39b8:	49 c7 c0 ff ff ff ff 	mov    $0xffffffffffffffff,%r8
    39bf:	b9 00 00 00 00       	mov    $0x0,%ecx
    39c4:	be 01 00 00 00       	mov    $0x1,%esi
    39c9:	48 89 c7             	mov    %rax,%rdi
    39cc:	e8 64 dc 00 00       	callq  11635 <xTimerGenericCommand>
    39d1:	48 8b 55 f0          	mov    -0x10(%rbp),%rdx
    39d5:	48 89 d0             	mov    %rdx,%rax
    39d8:	48 01 c0             	add    %rax,%rax
    39db:	48 01 d0             	add    %rdx,%rax
    39de:	48 89 c7             	mov    %rax,%rdi
    39e1:	e8 bc 8d 00 00       	callq  c7a2 <vTaskDelay>
    39e6:	48 8b 45 f8          	mov    -0x8(%rbp),%rax
    39ea:	48 89 c7             	mov    %rax,%rdi
    39ed:	e8 af e9 00 00       	callq  123a1 <pvTimerGetTimerID>
    39f2:	48 83 f8 01          	cmp    $0x1,%rax
    39f6:	74 11                	je     3a09 <prvDemonstrateChangingTimerReloadMode+0x161>
    39f8:	be ad 03 00 00       	mov    $0x3ad,%esi
    39fd:	48 8d 3d 1e 38 02 00 	lea    0x2381e(%rip),%rdi        # 27222 <_IO_stdin_used+0x222>
    3a04:	e8 03 03 00 00       	callq  3d0c <vAssertCalled>
    3a09:	48 8b 45 f8          	mov    -0x8(%rbp),%rax
    3a0d:	be 01 00 00 00       	mov    $0x1,%esi
    3a12:	48 89 c7             	mov    %rax,%rdi
    3a15:	e8 c3 df 00 00       	callq  119dd <vTimerSetReloadMode>
    3a1a:	48 8b 45 f8          	mov    -0x8(%rbp),%rax
    3a1e:	be 00 00 00 00       	mov    $0x0,%esi
    3a23:	48 89 c7             	mov    %rax,%rdi
    3a26:	e8 c2 e9 00 00       	callq  123ed <vTimerSetTimerID>
    3a2b:	e8 68 9e 00 00       	callq  d898 <xTaskGetTickCount>
    3a30:	48 89 c2             	mov    %rax,%rdx
    3a33:	48 8b 45 f8          	mov    -0x8(%rbp),%rax
    3a37:	41 b8 00 00 00 00    	mov    $0x0,%r8d
    3a3d:	b9 00 00 00 00       	mov    $0x0,%ecx
    3a42:	be 01 00 00 00       	mov    $0x1,%esi
    3a47:	48 89 c7             	mov    %rax,%rdi
    3a4a:	e8 e6 db 00 00       	callq  11635 <xTimerGenericCommand>
    3a4f:	48 8b 55 f0          	mov    -0x10(%rbp),%rdx
    3a53:	48 89 d0             	mov    %rdx,%rax
    3a56:	48 01 c0             	add    %rax,%rax
    3a59:	48 01 c2             	add    %rax,%rdx
    3a5c:	48 8b 45 f0          	mov    -0x10(%rbp),%rax
    3a60:	48 d1 e8             	shr    %rax
    3a63:	48 01 d0             	add    %rdx,%rax
    3a66:	48 89 c7             	mov    %rax,%rdi
    3a69:	e8 34 8d 00 00       	callq  c7a2 <vTaskDelay>
    3a6e:	48 8b 45 f8          	mov    -0x8(%rbp),%rax
    3a72:	48 89 c7             	mov    %rax,%rdi
    3a75:	e8 27 e9 00 00       	callq  123a1 <pvTimerGetTimerID>
    3a7a:	48 83 f8 03          	cmp    $0x3,%rax
    3a7e:	74 11                	je     3a91 <prvDemonstrateChangingTimerReloadMode+0x1e9>
    3a80:	be b5 03 00 00       	mov    $0x3b5,%esi
    3a85:	48 8d 3d 96 37 02 00 	lea    0x23796(%rip),%rdi        # 27222 <_IO_stdin_used+0x222>
    3a8c:	e8 7b 02 00 00       	callq  3d0c <vAssertCalled>
    3a91:	48 8b 45 f8          	mov    -0x8(%rbp),%rax
    3a95:	41 b8 00 00 00 00    	mov    $0x0,%r8d
    3a9b:	b9 00 00 00 00       	mov    $0x0,%ecx
    3aa0:	ba 00 00 00 00       	mov    $0x0,%edx
    3aa5:	be 03 00 00 00       	mov    $0x3,%esi
    3aaa:	48 89 c7             	mov    %rax,%rdi
    3aad:	e8 83 db 00 00       	callq  11635 <xTimerGenericCommand>
    3ab2:	48 85 c0             	test   %rax,%rax
    3ab5:	75 11                	jne    3ac8 <prvDemonstrateChangingTimerReloadMode+0x220>
    3ab7:	be b6 03 00 00       	mov    $0x3b6,%esi
    3abc:	48 8d 3d 5f 37 02 00 	lea    0x2375f(%rip),%rdi        # 27222 <_IO_stdin_used+0x222>
    3ac3:	e8 44 02 00 00       	callq  3d0c <vAssertCalled>
    3ac8:	48 8b 45 f8          	mov    -0x8(%rbp),%rax
    3acc:	be 00 00 00 00       	mov    $0x0,%esi
    3ad1:	48 89 c7             	mov    %rax,%rdi
    3ad4:	e8 04 df 00 00       	callq  119dd <vTimerSetReloadMode>
    3ad9:	48 8b 45 f8          	mov    -0x8(%rbp),%rax
    3add:	be 00 00 00 00       	mov    $0x0,%esi
    3ae2:	48 89 c7             	mov    %rax,%rdi
    3ae5:	e8 03 e9 00 00       	callq  123ed <vTimerSetTimerID>
    3aea:	e8 a9 9d 00 00       	callq  d898 <xTaskGetTickCount>
    3aef:	48 89 c2             	mov    %rax,%rdx
    3af2:	48 8b 45 f8          	mov    -0x8(%rbp),%rax
    3af6:	41 b8 00 00 00 00    	mov    $0x0,%r8d
    3afc:	b9 00 00 00 00       	mov    $0x0,%ecx
    3b01:	be 01 00 00 00       	mov    $0x1,%esi
    3b06:	48 89 c7             	mov    %rax,%rdi
    3b09:	e8 27 db 00 00       	callq  11635 <xTimerGenericCommand>
    3b0e:	48 8b 55 f0          	mov    -0x10(%rbp),%rdx
    3b12:	48 89 d0             	mov    %rdx,%rax
    3b15:	48 01 c0             	add    %rax,%rax
    3b18:	48 01 d0             	add    %rdx,%rax
    3b1b:	48 89 c7             	mov    %rax,%rdi
    3b1e:	e8 7f 8c 00 00       	callq  c7a2 <vTaskDelay>
    3b23:	48 8b 45 f8          	mov    -0x8(%rbp),%rax
    3b27:	41 b8 00 00 00 00    	mov    $0x0,%r8d
    3b2d:	b9 00 00 00 00       	mov    $0x0,%ecx
    3b32:	ba 00 00 00 00       	mov    $0x0,%edx
    3b37:	be 03 00 00 00       	mov    $0x3,%esi
    3b3c:	48 89 c7             	mov    %rax,%rdi
    3b3f:	e8 f1 da 00 00       	callq  11635 <xTimerGenericCommand>
    3b44:	48 85 c0             	test   %rax,%rax
    3b47:	75 11                	jne    3b5a <prvDemonstrateChangingTimerReloadMode+0x2b2>
    3b49:	be be 03 00 00       	mov    $0x3be,%esi
    3b4e:	48 8d 3d cd 36 02 00 	lea    0x236cd(%rip),%rdi        # 27222 <_IO_stdin_used+0x222>
    3b55:	e8 b2 01 00 00       	callq  3d0c <vAssertCalled>
    3b5a:	48 8b 45 f8          	mov    -0x8(%rbp),%rax
    3b5e:	48 89 c7             	mov    %rax,%rdi
    3b61:	e8 3b e8 00 00       	callq  123a1 <pvTimerGetTimerID>
    3b66:	48 83 f8 01          	cmp    $0x1,%rax
    3b6a:	74 11                	je     3b7d <prvDemonstrateChangingTimerReloadMode+0x2d5>
    3b6c:	be bf 03 00 00       	mov    $0x3bf,%esi
    3b71:	48 8d 3d aa 36 02 00 	lea    0x236aa(%rip),%rdi        # 27222 <_IO_stdin_used+0x222>
    3b78:	e8 8f 01 00 00       	callq  3d0c <vAssertCalled>
    3b7d:	48 8b 45 f8          	mov    -0x8(%rbp),%rax
    3b81:	49 c7 c0 ff ff ff ff 	mov    $0xffffffffffffffff,%r8
    3b88:	b9 00 00 00 00       	mov    $0x0,%ecx
    3b8d:	ba 00 00 00 00       	mov    $0x0,%edx
    3b92:	be 05 00 00 00       	mov    $0x5,%esi
    3b97:	48 89 c7             	mov    %rax,%rdi
    3b9a:	e8 96 da 00 00       	callq  11635 <xTimerGenericCommand>
    3b9f:	bf 00 00 00 00       	mov    $0x0,%edi
    3ba4:	e8 28 87 00 00       	callq  c2d1 <vTaskDelete>
    3ba9:	90                   	nop
    3baa:	c9                   	leaveq 
    3bab:	c3                   	retq   

0000000000003bac <main>:
    3bac:	f3 0f 1e fa          	endbr64 
    3bb0:	55                   	push   %rbp
    3bb1:	48 89 e5             	mov    %rsp,%rbp
    3bb4:	48 8d 35 9f 02 00 00 	lea    0x29f(%rip),%rsi        # 3e5a <handle_sigint>
    3bbb:	bf 02 00 00 00       	mov    $0x2,%edi
    3bc0:	e8 ab e9 ff ff       	callq  2570 <signal@plt>
    3bc5:	bf 01 00 00 00       	mov    $0x1,%edi
    3bca:	e8 9c fa 01 00       	callq  2366b <vTraceEnable>
    3bcf:	48 8d 3d a2 38 02 00 	lea    0x238a2(%rip),%rdi        # 27478 <_IO_stdin_used+0x478>
    3bd6:	e8 45 e8 ff ff       	callq  2420 <puts@plt>
    3bdb:	e8 76 ff 01 00       	callq  23b56 <uiTraceStart>
    3be0:	e8 c4 02 00 00       	callq  3ea9 <console_init>
    3be5:	48 8d 3d e3 38 02 00 	lea    0x238e3(%rip),%rdi        # 274cf <_IO_stdin_used+0x4cf>
    3bec:	b8 00 00 00 00       	mov    $0x0,%eax
    3bf1:	e8 d6 02 00 00       	callq  3ecc <console_print>
    3bf6:	e8 f2 09 00 00       	callq  45ed <main_ctfs>
    3bfb:	b8 00 00 00 00       	mov    $0x0,%eax
    3c00:	5d                   	pop    %rbp
    3c01:	c3                   	retq   

0000000000003c02 <vApplicationIdleHook>:
    3c02:	f3 0f 1e fa          	endbr64 
    3c06:	55                   	push   %rbp
    3c07:	48 89 e5             	mov    %rsp,%rbp
    3c0a:	bf 98 3a 00 00       	mov    $0x3a98,%edi
    3c0f:	e8 1c eb ff ff       	callq  2730 <usleep@plt>
    3c14:	e8 0e 00 00 00       	callq  3c27 <traceOnEnter>
    3c19:	90                   	nop
    3c1a:	5d                   	pop    %rbp
    3c1b:	c3                   	retq   

0000000000003c1c <vApplicationTickHook>:
    3c1c:	f3 0f 1e fa          	endbr64 
    3c20:	55                   	push   %rbp
    3c21:	48 89 e5             	mov    %rsp,%rbp
    3c24:	90                   	nop
    3c25:	5d                   	pop    %rbp
    3c26:	c3                   	retq   

0000000000003c27 <traceOnEnter>:
    3c27:	f3 0f 1e fa          	endbr64 
    3c2b:	55                   	push   %rbp
    3c2c:	48 89 e5             	mov    %rsp,%rbp
    3c2f:	90                   	nop
    3c30:	5d                   	pop    %rbp
    3c31:	c3                   	retq   

0000000000003c32 <vLoggingPrintf>:
    3c32:	f3 0f 1e fa          	endbr64 
    3c36:	55                   	push   %rbp
    3c37:	48 89 e5             	mov    %rsp,%rbp
    3c3a:	48 81 ec e0 00 00 00 	sub    $0xe0,%rsp
    3c41:	48 89 bd 28 ff ff ff 	mov    %rdi,-0xd8(%rbp)
    3c48:	48 89 b5 58 ff ff ff 	mov    %rsi,-0xa8(%rbp)
    3c4f:	48 89 95 60 ff ff ff 	mov    %rdx,-0xa0(%rbp)
    3c56:	48 89 8d 68 ff ff ff 	mov    %rcx,-0x98(%rbp)
    3c5d:	4c 89 85 70 ff ff ff 	mov    %r8,-0x90(%rbp)
    3c64:	4c 89 8d 78 ff ff ff 	mov    %r9,-0x88(%rbp)
    3c6b:	84 c0                	test   %al,%al
    3c6d:	74 20                	je     3c8f <vLoggingPrintf+0x5d>
    3c6f:	0f 29 45 80          	movaps %xmm0,-0x80(%rbp)
    3c73:	0f 29 4d 90          	movaps %xmm1,-0x70(%rbp)
    3c77:	0f 29 55 a0          	movaps %xmm2,-0x60(%rbp)
    3c7b:	0f 29 5d b0          	movaps %xmm3,-0x50(%rbp)
    3c7f:	0f 29 65 c0          	movaps %xmm4,-0x40(%rbp)
    3c83:	0f 29 6d d0          	movaps %xmm5,-0x30(%rbp)
    3c87:	0f 29 75 e0          	movaps %xmm6,-0x20(%rbp)
    3c8b:	0f 29 7d f0          	movaps %xmm7,-0x10(%rbp)
    3c8f:	64 48 8b 04 25 28 00 	mov    %fs:0x28,%rax
    3c96:	00 00 
    3c98:	48 89 85 48 ff ff ff 	mov    %rax,-0xb8(%rbp)
    3c9f:	31 c0                	xor    %eax,%eax
    3ca1:	c7 85 30 ff ff ff 08 	movl   $0x8,-0xd0(%rbp)
    3ca8:	00 00 00 
    3cab:	c7 85 34 ff ff ff 30 	movl   $0x30,-0xcc(%rbp)
    3cb2:	00 00 00 
    3cb5:	48 8d 45 10          	lea    0x10(%rbp),%rax
    3cb9:	48 89 85 38 ff ff ff 	mov    %rax,-0xc8(%rbp)
    3cc0:	48 8d 85 50 ff ff ff 	lea    -0xb0(%rbp),%rax
    3cc7:	48 89 85 40 ff ff ff 	mov    %rax,-0xc0(%rbp)
    3cce:	48 8d 95 30 ff ff ff 	lea    -0xd0(%rbp),%rdx
    3cd5:	48 8b 85 28 ff ff ff 	mov    -0xd8(%rbp),%rax
    3cdc:	48 89 d6             	mov    %rdx,%rsi
    3cdf:	48 89 c7             	mov    %rax,%rdi
    3ce2:	e8 19 e9 ff ff       	callq  2600 <vprintf@plt>
    3ce7:	90                   	nop
    3ce8:	48 8b 85 48 ff ff ff 	mov    -0xb8(%rbp),%rax
    3cef:	64 48 33 04 25 28 00 	xor    %fs:0x28,%rax
    3cf6:	00 00 
    3cf8:	74 05                	je     3cff <vLoggingPrintf+0xcd>
    3cfa:	e8 d1 e7 ff ff       	callq  24d0 <__stack_chk_fail@plt>
    3cff:	c9                   	leaveq 
    3d00:	c3                   	retq   

0000000000003d01 <vApplicationDaemonTaskStartupHook>:
    3d01:	f3 0f 1e fa          	endbr64 
    3d05:	55                   	push   %rbp
    3d06:	48 89 e5             	mov    %rsp,%rbp
    3d09:	90                   	nop
    3d0a:	5d                   	pop    %rbp
    3d0b:	c3                   	retq   

0000000000003d0c <vAssertCalled>:
    3d0c:	f3 0f 1e fa          	endbr64 
    3d10:	55                   	push   %rbp
    3d11:	48 89 e5             	mov    %rsp,%rbp
    3d14:	48 83 ec 20          	sub    $0x20,%rsp
    3d18:	48 89 7d e8          	mov    %rdi,-0x18(%rbp)
    3d1c:	48 89 75 e0          	mov    %rsi,-0x20(%rbp)
    3d20:	c7 45 fc 00 00 00 00 	movl   $0x0,-0x4(%rbp)
    3d27:	e8 a3 f0 00 00       	callq  12dcf <vPortEnterCritical>
    3d2c:	48 8b 05 ed d3 02 00 	mov    0x2d3ed(%rip),%rax        # 31120 <xPrinted.4656>
    3d33:	48 85 c0             	test   %rax,%rax
    3d36:	75 21                	jne    3d59 <vAssertCalled+0x4d>
    3d38:	48 c7 05 dd d3 02 00 	movq   $0x1,0x2d3dd(%rip)        # 31120 <xPrinted.4656>
    3d3f:	01 00 00 00 
    3d43:	48 8b 05 de d2 02 00 	mov    0x2d2de(%rip),%rax        # 31028 <xTraceRunning>
    3d4a:	48 83 f8 01          	cmp    $0x1,%rax
    3d4e:	75 09                	jne    3d59 <vAssertCalled+0x4d>
    3d50:	e8 13 00 00 00       	callq  3d68 <prvSaveTraceFile>
    3d55:	eb 02                	jmp    3d59 <vAssertCalled+0x4d>
    3d57:	90                   	nop
    3d58:	90                   	nop
    3d59:	8b 45 fc             	mov    -0x4(%rbp),%eax
    3d5c:	85 c0                	test   %eax,%eax
    3d5e:	74 f7                	je     3d57 <vAssertCalled+0x4b>
    3d60:	e8 98 f0 00 00       	callq  12dfd <vPortExitCritical>
    3d65:	90                   	nop
    3d66:	c9                   	leaveq 
    3d67:	c3                   	retq   

0000000000003d68 <prvSaveTraceFile>:
    3d68:	f3 0f 1e fa          	endbr64 
    3d6c:	55                   	push   %rbp
    3d6d:	48 89 e5             	mov    %rsp,%rbp
    3d70:	48 83 ec 10          	sub    $0x10,%rsp
    3d74:	e8 fa fe 01 00       	callq  23c73 <vTraceStop>
    3d79:	48 8d 35 6a 37 02 00 	lea    0x2376a(%rip),%rsi        # 274ea <_IO_stdin_used+0x4ea>
    3d80:	48 8d 3d 66 37 02 00 	lea    0x23766(%rip),%rdi        # 274ed <_IO_stdin_used+0x4ed>
    3d87:	e8 d4 e8 ff ff       	callq  2660 <fopen@plt>
    3d8c:	48 89 45 f8          	mov    %rax,-0x8(%rbp)
    3d90:	48 83 7d f8 00       	cmpq   $0x0,-0x8(%rbp)
    3d95:	74 3a                	je     3dd1 <prvSaveTraceFile+0x69>
    3d97:	48 8b 05 8a 37 13 00 	mov    0x13378a(%rip),%rax        # 137528 <RecorderDataPtr>
    3d9e:	48 8b 55 f8          	mov    -0x8(%rbp),%rdx
    3da2:	48 89 d1             	mov    %rdx,%rcx
    3da5:	ba 01 00 00 00       	mov    $0x1,%edx
    3daa:	be bc b9 02 00       	mov    $0x2b9bc,%esi
    3daf:	48 89 c7             	mov    %rax,%rdi
    3db2:	e8 19 e9 ff ff       	callq  26d0 <fwrite@plt>
    3db7:	48 8b 45 f8          	mov    -0x8(%rbp),%rax
    3dbb:	48 89 c7             	mov    %rax,%rdi
    3dbe:	e8 dd e6 ff ff       	callq  24a0 <fclose@plt>
    3dc3:	48 8d 3d 2e 37 02 00 	lea    0x2372e(%rip),%rdi        # 274f8 <_IO_stdin_used+0x4f8>
    3dca:	e8 51 e6 ff ff       	callq  2420 <puts@plt>
    3dcf:	eb 0c                	jmp    3ddd <prvSaveTraceFile+0x75>
    3dd1:	48 8d 3d 48 37 02 00 	lea    0x23748(%rip),%rdi        # 27520 <_IO_stdin_used+0x520>
    3dd8:	e8 43 e6 ff ff       	callq  2420 <puts@plt>
    3ddd:	90                   	nop
    3dde:	c9                   	leaveq 
    3ddf:	c3                   	retq   

0000000000003de0 <vApplicationGetIdleTaskMemory>:
    3de0:	f3 0f 1e fa          	endbr64 
    3de4:	55                   	push   %rbp
    3de5:	48 89 e5             	mov    %rsp,%rbp
    3de8:	48 89 7d f8          	mov    %rdi,-0x8(%rbp)
    3dec:	48 89 75 f0          	mov    %rsi,-0x10(%rbp)
    3df0:	48 89 55 e8          	mov    %rdx,-0x18(%rbp)
    3df4:	48 8b 45 f8          	mov    -0x8(%rbp),%rax
    3df8:	48 8d 15 41 d3 02 00 	lea    0x2d341(%rip),%rdx        # 31140 <xIdleTaskTCB.4670>
    3dff:	48 89 10             	mov    %rdx,(%rax)
    3e02:	48 8b 45 f0          	mov    -0x10(%rbp),%rax
    3e06:	48 8d 15 f3 d3 02 00 	lea    0x2d3f3(%rip),%rdx        # 31200 <uxIdleTaskStack.4671>
    3e0d:	48 89 10             	mov    %rdx,(%rax)
    3e10:	48 8b 45 e8          	mov    -0x18(%rbp),%rax
    3e14:	c7 00 46 00 00 00    	movl   $0x46,(%rax)
    3e1a:	90                   	nop
    3e1b:	5d                   	pop    %rbp
    3e1c:	c3                   	retq   

0000000000003e1d <vApplicationGetTimerTaskMemory>:
    3e1d:	f3 0f 1e fa          	endbr64 
    3e21:	55                   	push   %rbp
    3e22:	48 89 e5             	mov    %rsp,%rbp
    3e25:	48 89 7d f8          	mov    %rdi,-0x8(%rbp)
    3e29:	48 89 75 f0          	mov    %rsi,-0x10(%rbp)
    3e2d:	48 89 55 e8          	mov    %rdx,-0x18(%rbp)
    3e31:	48 8b 45 f8          	mov    -0x8(%rbp),%rax
    3e35:	48 8d 15 04 d6 02 00 	lea    0x2d604(%rip),%rdx        # 31440 <xTimerTaskTCB.4677>
    3e3c:	48 89 10             	mov    %rdx,(%rax)
    3e3f:	48 8b 45 f0          	mov    -0x10(%rbp),%rax
    3e43:	48 8d 15 16 37 13 00 	lea    0x133716(%rip),%rdx        # 137560 <uxTimerTaskStack>
    3e4a:	48 89 10             	mov    %rdx,(%rax)
    3e4d:	48 8b 45 e8          	mov    -0x18(%rbp),%rax
    3e51:	c7 00 8c 00 00 00    	movl   $0x8c,(%rax)
    3e57:	90                   	nop
    3e58:	5d                   	pop    %rbp
    3e59:	c3                   	retq   

0000000000003e5a <handle_sigint>:
    3e5a:	f3 0f 1e fa          	endbr64 
    3e5e:	55                   	push   %rbp
    3e5f:	48 89 e5             	mov    %rsp,%rbp
    3e62:	48 83 ec 20          	sub    $0x20,%rsp
    3e66:	89 7d ec             	mov    %edi,-0x14(%rbp)
    3e69:	48 8d 3d d8 36 02 00 	lea    0x236d8(%rip),%rdi        # 27548 <_IO_stdin_used+0x548>
    3e70:	e8 4b e6 ff ff       	callq  24c0 <chdir@plt>
    3e75:	89 45 fc             	mov    %eax,-0x4(%rbp)
    3e78:	83 7d fc ff          	cmpl   $0xffffffff,-0x4(%rbp)
    3e7c:	75 21                	jne    3e9f <handle_sigint+0x45>
    3e7e:	e8 7d e5 ff ff       	callq  2400 <__errno_location@plt>
    3e83:	8b 00                	mov    (%rax),%eax
    3e85:	89 c2                	mov    %eax,%edx
    3e87:	48 8d 35 ba 36 02 00 	lea    0x236ba(%rip),%rsi        # 27548 <_IO_stdin_used+0x548>
    3e8e:	48 8d 3d ee 36 02 00 	lea    0x236ee(%rip),%rdi        # 27583 <_IO_stdin_used+0x583>
    3e95:	b8 00 00 00 00       	mov    $0x0,%eax
    3e9a:	e8 41 e6 ff ff       	callq  24e0 <printf@plt>
    3e9f:	bf 02 00 00 00       	mov    $0x2,%edi
    3ea4:	e8 17 e8 ff ff       	callq  26c0 <exit@plt>

0000000000003ea9 <console_init>:
    3ea9:	f3 0f 1e fa          	endbr64 
    3ead:	55                   	push   %rbp
    3eae:	48 89 e5             	mov    %rsp,%rbp
    3eb1:	48 8d 35 08 3b 13 00 	lea    0x133b08(%rip),%rsi        # 1379c0 <xStdioMutexBuffer>
    3eb8:	bf 01 00 00 00       	mov    $0x1,%edi
    3ebd:	e8 e9 1a 00 00       	callq  59ab <xQueueCreateMutexStatic>
    3ec2:	48 89 05 9f 3b 13 00 	mov    %rax,0x133b9f(%rip)        # 137a68 <xStdioMutex>
    3ec9:	90                   	nop
    3eca:	5d                   	pop    %rbp
    3ecb:	c3                   	retq   

0000000000003ecc <console_print>:
    3ecc:	f3 0f 1e fa          	endbr64 
    3ed0:	55                   	push   %rbp
    3ed1:	48 89 e5             	mov    %rsp,%rbp
    3ed4:	48 81 ec e0 00 00 00 	sub    $0xe0,%rsp
    3edb:	48 89 bd 28 ff ff ff 	mov    %rdi,-0xd8(%rbp)
    3ee2:	48 89 b5 58 ff ff ff 	mov    %rsi,-0xa8(%rbp)
    3ee9:	48 89 95 60 ff ff ff 	mov    %rdx,-0xa0(%rbp)
    3ef0:	48 89 8d 68 ff ff ff 	mov    %rcx,-0x98(%rbp)
    3ef7:	4c 89 85 70 ff ff ff 	mov    %r8,-0x90(%rbp)
    3efe:	4c 89 8d 78 ff ff ff 	mov    %r9,-0x88(%rbp)
    3f05:	84 c0                	test   %al,%al
    3f07:	74 20                	je     3f29 <console_print+0x5d>
    3f09:	0f 29 45 80          	movaps %xmm0,-0x80(%rbp)
    3f0d:	0f 29 4d 90          	movaps %xmm1,-0x70(%rbp)
    3f11:	0f 29 55 a0          	movaps %xmm2,-0x60(%rbp)
    3f15:	0f 29 5d b0          	movaps %xmm3,-0x50(%rbp)
    3f19:	0f 29 65 c0          	movaps %xmm4,-0x40(%rbp)
    3f1d:	0f 29 6d d0          	movaps %xmm5,-0x30(%rbp)
    3f21:	0f 29 75 e0          	movaps %xmm6,-0x20(%rbp)
    3f25:	0f 29 7d f0          	movaps %xmm7,-0x10(%rbp)
    3f29:	64 48 8b 04 25 28 00 	mov    %fs:0x28,%rax
    3f30:	00 00 
    3f32:	48 89 85 48 ff ff ff 	mov    %rax,-0xb8(%rbp)
    3f39:	31 c0                	xor    %eax,%eax
    3f3b:	c7 85 30 ff ff ff 08 	movl   $0x8,-0xd0(%rbp)
    3f42:	00 00 00 
    3f45:	c7 85 34 ff ff ff 30 	movl   $0x30,-0xcc(%rbp)
    3f4c:	00 00 00 
    3f4f:	48 8d 45 10          	lea    0x10(%rbp),%rax
    3f53:	48 89 85 38 ff ff ff 	mov    %rax,-0xc8(%rbp)
    3f5a:	48 8d 85 50 ff ff ff 	lea    -0xb0(%rbp),%rax
    3f61:	48 89 85 40 ff ff ff 	mov    %rax,-0xc0(%rbp)
    3f68:	48 8b 05 f9 3a 13 00 	mov    0x133af9(%rip),%rax        # 137a68 <xStdioMutex>
    3f6f:	48 c7 c6 ff ff ff ff 	mov    $0xffffffffffffffff,%rsi
    3f76:	48 89 c7             	mov    %rax,%rdi
    3f79:	e8 f6 2f 00 00       	callq  6f74 <xQueueSemaphoreTake>
    3f7e:	48 8d 95 30 ff ff ff 	lea    -0xd0(%rbp),%rdx
    3f85:	48 8b 85 28 ff ff ff 	mov    -0xd8(%rbp),%rax
    3f8c:	48 89 d6             	mov    %rdx,%rsi
    3f8f:	48 89 c7             	mov    %rax,%rdi
    3f92:	e8 69 e6 ff ff       	callq  2600 <vprintf@plt>
    3f97:	48 8b 05 ca 3a 13 00 	mov    0x133aca(%rip),%rax        # 137a68 <xStdioMutex>
    3f9e:	b9 00 00 00 00       	mov    $0x0,%ecx
    3fa3:	ba 00 00 00 00       	mov    $0x0,%edx
    3fa8:	be 00 00 00 00       	mov    $0x0,%esi
    3fad:	48 89 c7             	mov    %rax,%rdi
    3fb0:	e8 e2 1d 00 00       	callq  5d97 <xQueueGenericSend>
    3fb5:	90                   	nop
    3fb6:	48 8b 85 48 ff ff ff 	mov    -0xb8(%rbp),%rax
    3fbd:	64 48 33 04 25 28 00 	xor    %fs:0x28,%rax
    3fc4:	00 00 
    3fc6:	74 05                	je     3fcd <console_print+0x101>
    3fc8:	e8 03 e5 ff ff       	callq  24d0 <__stack_chk_fail@plt>
    3fcd:	c9                   	leaveq 
    3fce:	c3                   	retq   

0000000000003fcf <input_validation_CTF>:
    3fcf:	f3 0f 1e fa          	endbr64 
    3fd3:	55                   	push   %rbp
    3fd4:	48 89 e5             	mov    %rsp,%rbp
    3fd7:	41 b9 00 00 00 00    	mov    $0x0,%r9d
    3fdd:	41 b8 02 00 00 00    	mov    $0x2,%r8d
    3fe3:	b9 00 00 00 00       	mov    $0x0,%ecx
    3fe8:	ba 00 04 00 00       	mov    $0x400,%edx
    3fed:	48 8d 35 ac 35 02 00 	lea    0x235ac(%rip),%rsi        # 275a0 <_IO_stdin_used+0x5a0>
    3ff4:	48 8d 3d 59 00 00 00 	lea    0x59(%rip),%rdi        # 4054 <input_validation>
    3ffb:	e8 f7 7c 00 00       	callq  bcf7 <xTaskCreate>
    4000:	e8 be 93 00 00       	callq  d3c3 <vTaskStartScheduler>
    4005:	90                   	nop
    4006:	5d                   	pop    %rbp
    4007:	c3                   	retq   

0000000000004008 <take_keyboard_input>:
    4008:	f3 0f 1e fa          	endbr64 
    400c:	55                   	push   %rbp
    400d:	48 89 e5             	mov    %rsp,%rbp
    4010:	48 83 ec 20          	sub    $0x20,%rsp
    4014:	48 89 7d e8          	mov    %rdi,-0x18(%rbp)
    4018:	c6 45 fb 00          	movb   $0x0,-0x5(%rbp)
    401c:	c7 45 fc 00 00 00 00 	movl   $0x0,-0x4(%rbp)
    4023:	eb 25                	jmp    404a <take_keyboard_input+0x42>
    4025:	e8 36 e5 ff ff       	callq  2560 <getchar@plt>
    402a:	88 45 fb             	mov    %al,-0x5(%rbp)
    402d:	80 7d fb ff          	cmpb   $0xff,-0x5(%rbp)
    4031:	74 17                	je     404a <take_keyboard_input+0x42>
    4033:	8b 45 fc             	mov    -0x4(%rbp),%eax
    4036:	48 63 d0             	movslq %eax,%rdx
    4039:	48 8b 45 e8          	mov    -0x18(%rbp),%rax
    403d:	48 01 c2             	add    %rax,%rdx
    4040:	0f b6 45 fb          	movzbl -0x5(%rbp),%eax
    4044:	88 02                	mov    %al,(%rdx)
    4046:	83 45 fc 01          	addl   $0x1,-0x4(%rbp)
    404a:	80 7d fb 0a          	cmpb   $0xa,-0x5(%rbp)
    404e:	75 d5                	jne    4025 <take_keyboard_input+0x1d>
    4050:	90                   	nop
    4051:	90                   	nop
    4052:	c9                   	leaveq 
    4053:	c3                   	retq   

0000000000004054 <input_validation>:
    4054:	f3 0f 1e fa          	endbr64 
    4058:	55                   	push   %rbp
    4059:	48 89 e5             	mov    %rsp,%rbp
    405c:	48 81 ec 30 01 00 00 	sub    $0x130,%rsp
    4063:	48 89 bd d8 fe ff ff 	mov    %rdi,-0x128(%rbp)
    406a:	64 48 8b 04 25 28 00 	mov    %fs:0x28,%rax
    4071:	00 00 
    4073:	48 89 45 f8          	mov    %rax,-0x8(%rbp)
    4077:	31 c0                	xor    %eax,%eax
    4079:	c6 85 ee fe ff ff 00 	movb   $0x0,-0x112(%rbp)
    4080:	c6 85 ef fe ff ff 00 	movb   $0x0,-0x111(%rbp)
    4087:	48 8d 85 f0 fe ff ff 	lea    -0x110(%rbp),%rax
    408e:	ba 7f 00 00 00       	mov    $0x7f,%edx
    4093:	be 00 00 00 00       	mov    $0x0,%esi
    4098:	48 89 c7             	mov    %rax,%rdi
    409b:	e8 70 e4 ff ff       	callq  2510 <memset@plt>
    40a0:	48 8d 3d 08 35 02 00 	lea    0x23508(%rip),%rdi        # 275af <_IO_stdin_used+0x5af>
    40a7:	b8 00 00 00 00       	mov    $0x0,%eax
    40ac:	e8 2f e4 ff ff       	callq  24e0 <printf@plt>
    40b1:	48 8d 85 f0 fe ff ff 	lea    -0x110(%rbp),%rax
    40b8:	48 89 c7             	mov    %rax,%rdi
    40bb:	e8 48 ff ff ff       	callq  4008 <take_keyboard_input>
    40c0:	48 8d 85 f0 fe ff ff 	lea    -0x110(%rbp),%rax
    40c7:	48 89 c7             	mov    %rax,%rdi
    40ca:	e8 e1 e3 ff ff       	callq  24b0 <strlen@plt>
    40cf:	83 e8 01             	sub    $0x1,%eax
    40d2:	88 85 ee fe ff ff    	mov    %al,-0x112(%rbp)
    40d8:	0f b6 85 ee fe ff ff 	movzbl -0x112(%rbp),%eax
    40df:	89 c6                	mov    %eax,%esi
    40e1:	48 8d 3d da 34 02 00 	lea    0x234da(%rip),%rdi        # 275c2 <_IO_stdin_used+0x5c2>
    40e8:	b8 00 00 00 00       	mov    $0x0,%eax
    40ed:	e8 ee e3 ff ff       	callq  24e0 <printf@plt>
    40f2:	48 8d 85 70 ff ff ff 	lea    -0x90(%rbp),%rax
    40f9:	ba 7f 00 00 00       	mov    $0x7f,%edx
    40fe:	be 00 00 00 00       	mov    $0x0,%esi
    4103:	48 89 c7             	mov    %rax,%rdi
    4106:	e8 05 e4 ff ff       	callq  2510 <memset@plt>
    410b:	48 8d 3d c0 34 02 00 	lea    0x234c0(%rip),%rdi        # 275d2 <_IO_stdin_used+0x5d2>
    4112:	b8 00 00 00 00       	mov    $0x0,%eax
    4117:	e8 c4 e3 ff ff       	callq  24e0 <printf@plt>
    411c:	48 8d 85 70 ff ff ff 	lea    -0x90(%rbp),%rax
    4123:	48 89 c7             	mov    %rax,%rdi
    4126:	e8 dd fe ff ff       	callq  4008 <take_keyboard_input>
    412b:	48 8d 85 70 ff ff ff 	lea    -0x90(%rbp),%rax
    4132:	48 89 c7             	mov    %rax,%rdi
    4135:	e8 76 e3 ff ff       	callq  24b0 <strlen@plt>
    413a:	83 e8 01             	sub    $0x1,%eax
    413d:	88 85 ef fe ff ff    	mov    %al,-0x111(%rbp)
    4143:	0f b6 95 ee fe ff ff 	movzbl -0x112(%rbp),%edx
    414a:	0f b6 85 ef fe ff ff 	movzbl -0x111(%rbp),%eax
    4151:	01 d0                	add    %edx,%eax
    4153:	3d ff 00 00 00       	cmp    $0xff,%eax
    4158:	7f 7e                	jg     41d8 <input_validation+0x184>
    415a:	0f b6 95 ee fe ff ff 	movzbl -0x112(%rbp),%edx
    4161:	48 8d 85 f0 fe ff ff 	lea    -0x110(%rbp),%rax
    4168:	48 89 c6             	mov    %rax,%rsi
    416b:	48 8d 3d 2e 39 13 00 	lea    0x13392e(%rip),%rdi        # 137aa0 <ownername>
    4172:	e8 39 e4 ff ff       	callq  25b0 <memcpy@plt>
    4177:	0f b6 95 ef fe ff ff 	movzbl -0x111(%rbp),%edx
    417e:	0f b6 85 ee fe ff ff 	movzbl -0x112(%rbp),%eax
    4185:	48 8d 0d 14 39 13 00 	lea    0x133914(%rip),%rcx        # 137aa0 <ownername>
    418c:	48 01 c1             	add    %rax,%rcx
    418f:	48 8d 85 70 ff ff ff 	lea    -0x90(%rbp),%rax
    4196:	48 89 c6             	mov    %rax,%rsi
    4199:	48 89 cf             	mov    %rcx,%rdi
    419c:	e8 0f e4 ff ff       	callq  25b0 <memcpy@plt>
    41a1:	0f b6 95 ee fe ff ff 	movzbl -0x112(%rbp),%edx
    41a8:	0f b6 85 ef fe ff ff 	movzbl -0x111(%rbp),%eax
    41af:	01 d0                	add    %edx,%eax
    41b1:	48 98                	cltq   
    41b3:	48 8d 15 e6 38 13 00 	lea    0x1338e6(%rip),%rdx        # 137aa0 <ownername>
    41ba:	c6 04 10 00          	movb   $0x0,(%rax,%rdx,1)
    41be:	48 8d 35 db 38 13 00 	lea    0x1338db(%rip),%rsi        # 137aa0 <ownername>
    41c5:	48 8d 3d 18 34 02 00 	lea    0x23418(%rip),%rdi        # 275e4 <_IO_stdin_used+0x5e4>
    41cc:	b8 00 00 00 00       	mov    $0x0,%eax
    41d1:	e8 0a e3 ff ff       	callq  24e0 <printf@plt>
    41d6:	eb 11                	jmp    41e9 <input_validation+0x195>
    41d8:	48 8d 3d 18 34 02 00 	lea    0x23418(%rip),%rdi        # 275f7 <_IO_stdin_used+0x5f7>
    41df:	b8 00 00 00 00       	mov    $0x0,%eax
    41e4:	e8 f7 e2 ff ff       	callq  24e0 <printf@plt>
    41e9:	b8 00 00 00 00       	mov    $0x0,%eax
    41ee:	48 8b 4d f8          	mov    -0x8(%rbp),%rcx
    41f2:	64 48 33 0c 25 28 00 	xor    %fs:0x28,%rcx
    41f9:	00 00 
    41fb:	74 05                	je     4202 <input_validation+0x1ae>
    41fd:	e8 ce e2 ff ff       	callq  24d0 <__stack_chk_fail@plt>
    4202:	c9                   	leaveq 
    4203:	c3                   	retq   

0000000000004204 <vApplicationStackOverflowHook>:
    4204:	f3 0f 1e fa          	endbr64 
    4208:	55                   	push   %rbp
    4209:	48 89 e5             	mov    %rsp,%rbp
    420c:	48 83 ec 10          	sub    $0x10,%rsp
    4210:	48 89 7d f8          	mov    %rdi,-0x8(%rbp)
    4214:	48 89 75 f0          	mov    %rsi,-0x10(%rbp)
    4218:	48 8d 3d e1 33 02 00 	lea    0x233e1(%rip),%rdi        # 27600 <_IO_stdin_used+0x600>
    421f:	e8 fc e1 ff ff       	callq  2420 <puts@plt>
    4224:	eb f2                	jmp    4218 <vApplicationStackOverflowHook+0x14>

0000000000004226 <vApplicationMallocFailedHook>:
    4226:	f3 0f 1e fa          	endbr64 
    422a:	55                   	push   %rbp
    422b:	48 89 e5             	mov    %rsp,%rbp
    422e:	48 8d 3d eb 33 02 00 	lea    0x233eb(%rip),%rdi        # 27620 <_IO_stdin_used+0x620>
    4235:	e8 e6 e1 ff ff       	callq  2420 <puts@plt>
    423a:	eb f2                	jmp    422e <vApplicationMallocFailedHook+0x8>

000000000000423c <caesar_encrypt>:
    423c:	f3 0f 1e fa          	endbr64 
    4240:	55                   	push   %rbp
    4241:	48 89 e5             	mov    %rsp,%rbp
    4244:	53                   	push   %rbx
    4245:	48 83 ec 28          	sub    $0x28,%rsp
    4249:	48 89 7d d8          	mov    %rdi,-0x28(%rbp)
    424d:	89 75 d4             	mov    %esi,-0x2c(%rbp)
    4250:	89 55 d0             	mov    %edx,-0x30(%rbp)
    4253:	8b 45 d0             	mov    -0x30(%rbp),%eax
    4256:	48 63 d8             	movslq %eax,%rbx
    4259:	48 8b 45 d8          	mov    -0x28(%rbp),%rax
    425d:	48 89 c7             	mov    %rax,%rdi
    4260:	e8 4b e2 ff ff       	callq  24b0 <strlen@plt>
    4265:	48 39 c3             	cmp    %rax,%rbx
    4268:	75 1b                	jne    4285 <caesar_encrypt+0x49>
    426a:	8b 45 d0             	mov    -0x30(%rbp),%eax
    426d:	89 c6                	mov    %eax,%esi
    426f:	48 8d 3d cb 33 02 00 	lea    0x233cb(%rip),%rdi        # 27641 <_IO_stdin_used+0x641>
    4276:	b8 00 00 00 00       	mov    $0x0,%eax
    427b:	e8 60 e2 ff ff       	callq  24e0 <printf@plt>
    4280:	e9 e6 00 00 00       	jmpq   436b <caesar_encrypt+0x12f>
    4285:	8b 45 d4             	mov    -0x2c(%rbp),%eax
    4288:	48 63 d0             	movslq %eax,%rdx
    428b:	48 69 d2 4f ec c4 4e 	imul   $0x4ec4ec4f,%rdx,%rdx
    4292:	48 c1 ea 20          	shr    $0x20,%rdx
    4296:	89 d1                	mov    %edx,%ecx
    4298:	c1 f9 03             	sar    $0x3,%ecx
    429b:	99                   	cltd   
    429c:	29 d1                	sub    %edx,%ecx
    429e:	89 ca                	mov    %ecx,%edx
    42a0:	6b d2 1a             	imul   $0x1a,%edx,%edx
    42a3:	29 d0                	sub    %edx,%eax
    42a5:	89 45 d4             	mov    %eax,-0x2c(%rbp)
    42a8:	83 7d d4 00          	cmpl   $0x0,-0x2c(%rbp)
    42ac:	0f 8e a8 00 00 00    	jle    435a <caesar_encrypt+0x11e>
    42b2:	8b 45 d0             	mov    -0x30(%rbp),%eax
    42b5:	48 63 d0             	movslq %eax,%rdx
    42b8:	48 8b 45 d8          	mov    -0x28(%rbp),%rax
    42bc:	48 01 d0             	add    %rdx,%rax
    42bf:	0f b6 00             	movzbl (%rax),%eax
    42c2:	88 45 ef             	mov    %al,-0x11(%rbp)
    42c5:	80 7d ef 60          	cmpb   $0x60,-0x11(%rbp)
    42c9:	7e 39                	jle    4304 <caesar_encrypt+0xc8>
    42cb:	80 7d ef 7a          	cmpb   $0x7a,-0x11(%rbp)
    42cf:	7f 33                	jg     4304 <caesar_encrypt+0xc8>
    42d1:	8b 45 d4             	mov    -0x2c(%rbp),%eax
    42d4:	89 c2                	mov    %eax,%edx
    42d6:	0f b6 45 ef          	movzbl -0x11(%rbp),%eax
    42da:	01 d0                	add    %edx,%eax
    42dc:	88 45 ef             	mov    %al,-0x11(%rbp)
    42df:	80 7d ef 7a          	cmpb   $0x7a,-0x11(%rbp)
    42e3:	7e 0a                	jle    42ef <caesar_encrypt+0xb3>
    42e5:	0f b6 45 ef          	movzbl -0x11(%rbp),%eax
    42e9:	83 e8 1a             	sub    $0x1a,%eax
    42ec:	88 45 ef             	mov    %al,-0x11(%rbp)
    42ef:	8b 45 d0             	mov    -0x30(%rbp),%eax
    42f2:	48 63 d0             	movslq %eax,%rdx
    42f5:	48 8b 45 d8          	mov    -0x28(%rbp),%rax
    42f9:	48 01 c2             	add    %rax,%rdx
    42fc:	0f b6 45 ef          	movzbl -0x11(%rbp),%eax
    4300:	88 02                	mov    %al,(%rdx)
    4302:	eb 3d                	jmp    4341 <caesar_encrypt+0x105>
    4304:	80 7d ef 40          	cmpb   $0x40,-0x11(%rbp)
    4308:	7e 37                	jle    4341 <caesar_encrypt+0x105>
    430a:	80 7d ef 5a          	cmpb   $0x5a,-0x11(%rbp)
    430e:	7f 31                	jg     4341 <caesar_encrypt+0x105>
    4310:	8b 45 d4             	mov    -0x2c(%rbp),%eax
    4313:	89 c2                	mov    %eax,%edx
    4315:	0f b6 45 ef          	movzbl -0x11(%rbp),%eax
    4319:	01 d0                	add    %edx,%eax
    431b:	88 45 ef             	mov    %al,-0x11(%rbp)
    431e:	80 7d ef 5a          	cmpb   $0x5a,-0x11(%rbp)
    4322:	7e 0a                	jle    432e <caesar_encrypt+0xf2>
    4324:	0f b6 45 ef          	movzbl -0x11(%rbp),%eax
    4328:	83 e8 1a             	sub    $0x1a,%eax
    432b:	88 45 ef             	mov    %al,-0x11(%rbp)
    432e:	8b 45 d0             	mov    -0x30(%rbp),%eax
    4331:	48 63 d0             	movslq %eax,%rdx
    4334:	48 8b 45 d8          	mov    -0x28(%rbp),%rax
    4338:	48 01 c2             	add    %rax,%rdx
    433b:	0f b6 45 ef          	movzbl -0x11(%rbp),%eax
    433f:	88 02                	mov    %al,(%rdx)
    4341:	8b 45 d0             	mov    -0x30(%rbp),%eax
    4344:	8d 50 01             	lea    0x1(%rax),%edx
    4347:	8b 4d d4             	mov    -0x2c(%rbp),%ecx
    434a:	48 8b 45 d8          	mov    -0x28(%rbp),%rax
    434e:	89 ce                	mov    %ecx,%esi
    4350:	48 89 c7             	mov    %rax,%rdi
    4353:	e8 e4 fe ff ff       	callq  423c <caesar_encrypt>
    4358:	eb 11                	jmp    436b <caesar_encrypt+0x12f>
    435a:	48 8d 3d ef 32 02 00 	lea    0x232ef(%rip),%rdi        # 27650 <_IO_stdin_used+0x650>
    4361:	b8 00 00 00 00       	mov    $0x0,%eax
    4366:	e8 75 e1 ff ff       	callq  24e0 <printf@plt>
    436b:	48 83 c4 28          	add    $0x28,%rsp
    436f:	5b                   	pop    %rbx
    4370:	5d                   	pop    %rbp
    4371:	c3                   	retq   

0000000000004372 <encrypt>:
    4372:	f3 0f 1e fa          	endbr64 
    4376:	55                   	push   %rbp
    4377:	48 89 e5             	mov    %rsp,%rbp
    437a:	48 83 ec 50          	sub    $0x50,%rsp
    437e:	48 89 7d b8          	mov    %rdi,-0x48(%rbp)
    4382:	64 48 8b 04 25 28 00 	mov    %fs:0x28,%rax
    4389:	00 00 
    438b:	48 89 45 f8          	mov    %rax,-0x8(%rbp)
    438f:	31 c0                	xor    %eax,%eax
    4391:	bf 00 00 00 00       	mov    $0x0,%edi
    4396:	e8 d2 b1 00 00       	callq  f56d <uxTaskGetStackHighWaterMark>
    439b:	48 89 c6             	mov    %rax,%rsi
    439e:	48 8d 3d d3 32 02 00 	lea    0x232d3(%rip),%rdi        # 27678 <_IO_stdin_used+0x678>
    43a5:	b8 00 00 00 00       	mov    $0x0,%eax
    43aa:	e8 31 e1 ff ff       	callq  24e0 <printf@plt>
    43af:	48 8d 3d f8 32 02 00 	lea    0x232f8(%rip),%rdi        # 276ae <_IO_stdin_used+0x6ae>
    43b6:	b8 00 00 00 00       	mov    $0x0,%eax
    43bb:	e8 20 e1 ff ff       	callq  24e0 <printf@plt>
    43c0:	48 8d 45 c0          	lea    -0x40(%rbp),%rax
    43c4:	48 89 c7             	mov    %rax,%rdi
    43c7:	e8 3c fc ff ff       	callq  4008 <take_keyboard_input>
    43cc:	48 8d 45 c0          	lea    -0x40(%rbp),%rax
    43d0:	48 89 c7             	mov    %rax,%rdi
    43d3:	e8 d8 e0 ff ff       	callq  24b0 <strlen@plt>
    43d8:	48 89 c6             	mov    %rax,%rsi
    43db:	48 8d 3d ea 32 02 00 	lea    0x232ea(%rip),%rdi        # 276cc <_IO_stdin_used+0x6cc>
    43e2:	b8 00 00 00 00       	mov    $0x0,%eax
    43e7:	e8 f4 e0 ff ff       	callq  24e0 <printf@plt>
    43ec:	bf 00 00 00 00       	mov    $0x0,%edi
    43f1:	e8 77 b1 00 00       	callq  f56d <uxTaskGetStackHighWaterMark>
    43f6:	48 89 c6             	mov    %rax,%rsi
    43f9:	48 8d 3d e0 32 02 00 	lea    0x232e0(%rip),%rdi        # 276e0 <_IO_stdin_used+0x6e0>
    4400:	b8 00 00 00 00       	mov    $0x0,%eax
    4405:	e8 d6 e0 ff ff       	callq  24e0 <printf@plt>
    440a:	48 8d 45 c0          	lea    -0x40(%rbp),%rax
    440e:	ba 00 00 00 00       	mov    $0x0,%edx
    4413:	be 19 00 00 00       	mov    $0x19,%esi
    4418:	48 89 c7             	mov    %rax,%rdi
    441b:	e8 1c fe ff ff       	callq  423c <caesar_encrypt>
    4420:	bf 00 00 00 00       	mov    $0x0,%edi
    4425:	e8 43 b1 00 00       	callq  f56d <uxTaskGetStackHighWaterMark>
    442a:	48 89 c6             	mov    %rax,%rsi
    442d:	48 8d 3d ec 32 02 00 	lea    0x232ec(%rip),%rdi        # 27720 <_IO_stdin_used+0x720>
    4434:	b8 00 00 00 00       	mov    $0x0,%eax
    4439:	e8 a2 e0 ff ff       	callq  24e0 <printf@plt>
    443e:	48 8d 45 c0          	lea    -0x40(%rbp),%rax
    4442:	48 89 c6             	mov    %rax,%rsi
    4445:	48 8d 3d 0d 33 02 00 	lea    0x2330d(%rip),%rdi        # 27759 <_IO_stdin_used+0x759>
    444c:	b8 00 00 00 00       	mov    $0x0,%eax
    4451:	e8 8a e0 ff ff       	callq  24e0 <printf@plt>
    4456:	48 8d 45 c0          	lea    -0x40(%rbp),%rax
    445a:	48 89 c7             	mov    %rax,%rdi
    445d:	e8 4e e0 ff ff       	callq  24b0 <strlen@plt>
    4462:	48 89 c6             	mov    %rax,%rsi
    4465:	48 8d 3d 04 33 02 00 	lea    0x23304(%rip),%rdi        # 27770 <_IO_stdin_used+0x770>
    446c:	b8 00 00 00 00       	mov    $0x0,%eax
    4471:	e8 6a e0 ff ff       	callq  24e0 <printf@plt>
    4476:	90                   	nop
    4477:	48 8b 45 f8          	mov    -0x8(%rbp),%rax
    447b:	64 48 33 04 25 28 00 	xor    %fs:0x28,%rax
    4482:	00 00 
    4484:	74 05                	je     448b <encrypt+0x119>
    4486:	e8 45 e0 ff ff       	callq  24d0 <__stack_chk_fail@plt>
    448b:	c9                   	leaveq 
    448c:	c3                   	retq   

000000000000448d <printArray>:
    448d:	f3 0f 1e fa          	endbr64 
    4491:	55                   	push   %rbp
    4492:	48 89 e5             	mov    %rsp,%rbp
    4495:	48 83 ec 10          	sub    $0x10,%rsp
    4499:	48 89 7d f8          	mov    %rdi,-0x8(%rbp)
    449d:	89 75 f4             	mov    %esi,-0xc(%rbp)
    44a0:	89 55 f0             	mov    %edx,-0x10(%rbp)
    44a3:	8b 55 f4             	mov    -0xc(%rbp),%edx
    44a6:	8b 45 f0             	mov    -0x10(%rbp),%eax
    44a9:	39 c2                	cmp    %eax,%edx
    44ab:	7d 42                	jge    44ef <printArray+0x62>
    44ad:	8b 45 f4             	mov    -0xc(%rbp),%eax
    44b0:	48 98                	cltq   
    44b2:	48 8d 14 85 00 00 00 	lea    0x0(,%rax,4),%rdx
    44b9:	00 
    44ba:	48 8b 45 f8          	mov    -0x8(%rbp),%rax
    44be:	48 01 d0             	add    %rdx,%rax
    44c1:	8b 00                	mov    (%rax),%eax
    44c3:	89 c6                	mov    %eax,%esi
    44c5:	48 8d 3d b5 32 02 00 	lea    0x232b5(%rip),%rdi        # 27781 <_IO_stdin_used+0x781>
    44cc:	b8 00 00 00 00       	mov    $0x0,%eax
    44d1:	e8 0a e0 ff ff       	callq  24e0 <printf@plt>
    44d6:	8b 55 f0             	mov    -0x10(%rbp),%edx
    44d9:	8b 45 f4             	mov    -0xc(%rbp),%eax
    44dc:	8d 48 01             	lea    0x1(%rax),%ecx
    44df:	48 8b 45 f8          	mov    -0x8(%rbp),%rax
    44e3:	89 ce                	mov    %ecx,%esi
    44e5:	48 89 c7             	mov    %rax,%rdi
    44e8:	e8 a0 ff ff ff       	callq  448d <printArray>
    44ed:	eb 01                	jmp    44f0 <printArray+0x63>
    44ef:	90                   	nop
    44f0:	c9                   	leaveq 
    44f1:	c3                   	retq   

00000000000044f2 <fact>:
    44f2:	f3 0f 1e fa          	endbr64 
    44f6:	55                   	push   %rbp
    44f7:	48 89 e5             	mov    %rsp,%rbp
    44fa:	53                   	push   %rbx
    44fb:	48 83 ec 48          	sub    $0x48,%rsp
    44ff:	89 7d bc             	mov    %edi,-0x44(%rbp)
    4502:	64 48 8b 04 25 28 00 	mov    %fs:0x28,%rax
    4509:	00 00 
    450b:	48 89 45 e8          	mov    %rax,-0x18(%rbp)
    450f:	31 c0                	xor    %eax,%eax
    4511:	bf 00 00 00 00       	mov    $0x0,%edi
    4516:	e8 52 b0 00 00       	callq  f56d <uxTaskGetStackHighWaterMark>
    451b:	48 89 c6             	mov    %rax,%rsi
    451e:	48 8d 3d 63 32 02 00 	lea    0x23263(%rip),%rdi        # 27788 <_IO_stdin_used+0x788>
    4525:	b8 00 00 00 00       	mov    $0x0,%eax
    452a:	e8 b1 df ff ff       	callq  24e0 <printf@plt>
    452f:	8b 45 bc             	mov    -0x44(%rbp),%eax
    4532:	8b 55 bc             	mov    -0x44(%rbp),%edx
    4535:	89 54 85 c0          	mov    %edx,-0x40(%rbp,%rax,4)
    4539:	83 7d bc 00          	cmpl   $0x0,-0x44(%rbp)
    453d:	75 07                	jne    4546 <fact+0x54>
    453f:	b8 01 00 00 00       	mov    $0x1,%eax
    4544:	eb 17                	jmp    455d <fact+0x6b>
    4546:	8b 45 bc             	mov    -0x44(%rbp),%eax
    4549:	8b 5c 85 c0          	mov    -0x40(%rbp,%rax,4),%ebx
    454d:	8b 45 bc             	mov    -0x44(%rbp),%eax
    4550:	83 e8 01             	sub    $0x1,%eax
    4553:	89 c7                	mov    %eax,%edi
    4555:	e8 98 ff ff ff       	callq  44f2 <fact>
    455a:	0f af c3             	imul   %ebx,%eax
    455d:	48 8b 4d e8          	mov    -0x18(%rbp),%rcx
    4561:	64 48 33 0c 25 28 00 	xor    %fs:0x28,%rcx
    4568:	00 00 
    456a:	74 05                	je     4571 <fact+0x7f>
    456c:	e8 5f df ff ff       	callq  24d0 <__stack_chk_fail@plt>
    4571:	48 83 c4 48          	add    $0x48,%rsp
    4575:	5b                   	pop    %rbx
    4576:	5d                   	pop    %rbp
    4577:	c3                   	retq   

0000000000004578 <dummy>:
    4578:	f3 0f 1e fa          	endbr64 
    457c:	55                   	push   %rbp
    457d:	48 89 e5             	mov    %rsp,%rbp
    4580:	48 83 ec 20          	sub    $0x20,%rsp
    4584:	48 89 7d e8          	mov    %rdi,-0x18(%rbp)
    4588:	c7 45 f8 02 00 00 00 	movl   $0x2,-0x8(%rbp)
    458f:	c7 45 fc 00 00 00 00 	movl   $0x0,-0x4(%rbp)
    4596:	eb 15                	jmp    45ad <dummy+0x35>
    4598:	48 8d 3d 0c 32 02 00 	lea    0x2320c(%rip),%rdi        # 277ab <_IO_stdin_used+0x7ab>
    459f:	b8 00 00 00 00       	mov    $0x0,%eax
    45a4:	e8 37 df ff ff       	callq  24e0 <printf@plt>
    45a9:	83 45 fc 01          	addl   $0x1,-0x4(%rbp)
    45ad:	8b 45 f8             	mov    -0x8(%rbp),%eax
    45b0:	39 45 fc             	cmp    %eax,-0x4(%rbp)
    45b3:	7c e3                	jl     4598 <dummy+0x20>
    45b5:	90                   	nop
    45b6:	90                   	nop
    45b7:	c9                   	leaveq 
    45b8:	c3                   	retq   

00000000000045b9 <dummy2>:
    45b9:	f3 0f 1e fa          	endbr64 
    45bd:	55                   	push   %rbp
    45be:	48 89 e5             	mov    %rsp,%rbp
    45c1:	48 83 ec 10          	sub    $0x10,%rsp
    45c5:	48 89 7d f8          	mov    %rdi,-0x8(%rbp)
    45c9:	48 8d 3d e8 31 02 00 	lea    0x231e8(%rip),%rdi        # 277b8 <_IO_stdin_used+0x7b8>
    45d0:	b8 00 00 00 00       	mov    $0x0,%eax
    45d5:	e8 06 df ff ff       	callq  24e0 <printf@plt>
    45da:	48 8d 3d 05 32 02 00 	lea    0x23205(%rip),%rdi        # 277e6 <_IO_stdin_used+0x7e6>
    45e1:	b8 00 00 00 00       	mov    $0x0,%eax
    45e6:	e8 f5 de ff ff       	callq  24e0 <printf@plt>
    45eb:	eb ed                	jmp    45da <dummy2+0x21>

00000000000045ed <main_ctfs>:
    45ed:	f3 0f 1e fa          	endbr64 
    45f1:	55                   	push   %rbp
    45f2:	48 89 e5             	mov    %rsp,%rbp
    45f5:	48 81 ec 30 0a 00 00 	sub    $0xa30,%rsp
    45fc:	64 48 8b 04 25 28 00 	mov    %fs:0x28,%rax
    4603:	00 00 
    4605:	48 89 45 f8          	mov    %rax,-0x8(%rbp)
    4609:	31 c0                	xor    %eax,%eax
    460b:	48 8d 95 30 f7 ff ff 	lea    -0x8d0(%rbp),%rdx
    4612:	48 83 ec 08          	sub    $0x8,%rsp
    4616:	48 8d 85 d0 f5 ff ff 	lea    -0xa30(%rbp),%rax
    461d:	50                   	push   %rax
    461e:	49 89 d1             	mov    %rdx,%r9
    4621:	41 b8 03 00 00 00    	mov    $0x3,%r8d
    4627:	b9 00 00 00 00       	mov    $0x0,%ecx
    462c:	ba 0a 00 00 00       	mov    $0xa,%edx
    4631:	48 8d 35 c1 31 02 00 	lea    0x231c1(%rip),%rsi        # 277f9 <_IO_stdin_used+0x7f9>
    4638:	48 8d 3d 39 ff ff ff 	lea    -0xc7(%rip),%rdi        # 4578 <dummy>
    463f:	e8 95 75 00 00       	callq  bbd9 <xTaskCreateStatic>
    4644:	48 83 c4 10          	add    $0x10,%rsp
    4648:	48 8d 95 90 fb ff ff 	lea    -0x470(%rbp),%rdx
    464f:	48 83 ec 08          	sub    $0x8,%rsp
    4653:	48 8d 85 80 f6 ff ff 	lea    -0x980(%rbp),%rax
    465a:	50                   	push   %rax
    465b:	49 89 d1             	mov    %rdx,%r9
    465e:	41 b8 03 00 00 00    	mov    $0x3,%r8d
    4664:	b9 00 00 00 00       	mov    $0x0,%ecx
    4669:	ba 0a 00 00 00       	mov    $0xa,%edx
    466e:	48 8d 35 93 31 02 00 	lea    0x23193(%rip),%rsi        # 27808 <_IO_stdin_used+0x808>
    4675:	48 8d 3d 3d ff ff ff 	lea    -0xc3(%rip),%rdi        # 45b9 <dummy2>
    467c:	e8 58 75 00 00       	callq  bbd9 <xTaskCreateStatic>
    4681:	48 83 c4 10          	add    $0x10,%rsp
    4685:	e8 39 8d 00 00       	callq  d3c3 <vTaskStartScheduler>
    468a:	90                   	nop
    468b:	48 8b 4d f8          	mov    -0x8(%rbp),%rcx
    468f:	64 48 33 0c 25 28 00 	xor    %fs:0x28,%rcx
    4696:	00 00 
    4698:	74 05                	je     469f <main_ctfs+0xb2>
    469a:	e8 31 de ff ff       	callq  24d0 <__stack_chk_fail@plt>
    469f:	c9                   	leaveq 
    46a0:	c3                   	retq   

00000000000046a1 <prvStaticAllocationsWithNullBuffers>:
    46a1:	f3 0f 1e fa          	endbr64 
    46a5:	55                   	push   %rbp
    46a6:	48 89 e5             	mov    %rsp,%rbp
    46a9:	48 83 ec 20          	sub    $0x20,%rsp
    46ad:	64 48 8b 04 25 28 00 	mov    %fs:0x28,%rax
    46b4:	00 00 
    46b6:	48 89 45 f8          	mov    %rax,-0x8(%rbp)
    46ba:	31 c0                	xor    %eax,%eax
    46bc:	48 c7 45 e8 00 00 00 	movq   $0x0,-0x18(%rbp)
    46c3:	00 
    46c4:	48 c7 45 e0 01 00 00 	movq   $0x1,-0x20(%rbp)
    46cb:	00 
    46cc:	48 c7 45 f0 0a 00 00 	movq   $0xa,-0x10(%rbp)
    46d3:	00 
    46d4:	bf 00 00 00 00       	mov    $0x0,%edi
    46d9:	e8 25 65 00 00       	callq  ac03 <xEventGroupCreateStatic>
    46de:	48 09 45 e8          	or     %rax,-0x18(%rbp)
    46e2:	48 83 ec 08          	sub    $0x8,%rsp
    46e6:	48 8d 45 e0          	lea    -0x20(%rbp),%rax
    46ea:	50                   	push   %rax
    46eb:	41 b9 00 00 00 00    	mov    $0x0,%r9d
    46f1:	41 b8 00 00 00 00    	mov    $0x0,%r8d
    46f7:	b9 00 00 00 00       	mov    $0x0,%ecx
    46fc:	ba 46 00 00 00       	mov    $0x46,%edx
    4701:	48 8d 35 07 31 02 00 	lea    0x23107(%rip),%rsi        # 2780f <_IO_stdin_used+0x80f>
    4708:	bf 00 00 00 00       	mov    $0x0,%edi
    470d:	e8 c7 74 00 00       	callq  bbd9 <xTaskCreateStatic>
    4712:	48 83 c4 10          	add    $0x10,%rsp
    4716:	48 09 45 e8          	or     %rax,-0x18(%rbp)
    471a:	48 8d 45 e0          	lea    -0x20(%rbp),%rax
    471e:	48 83 ec 08          	sub    $0x8,%rsp
    4722:	6a 00                	pushq  $0x0
    4724:	49 89 c1             	mov    %rax,%r9
    4727:	41 b8 00 00 00 00    	mov    $0x0,%r8d
    472d:	b9 00 00 00 00       	mov    $0x0,%ecx
    4732:	ba 46 00 00 00       	mov    $0x46,%edx
    4737:	48 8d 35 d1 30 02 00 	lea    0x230d1(%rip),%rsi        # 2780f <_IO_stdin_used+0x80f>
    473e:	bf 00 00 00 00       	mov    $0x0,%edi
    4743:	e8 91 74 00 00       	callq  bbd9 <xTaskCreateStatic>
    4748:	48 83 c4 10          	add    $0x10,%rsp
    474c:	48 09 45 e8          	or     %rax,-0x18(%rbp)
    4750:	48 8d 55 e0          	lea    -0x20(%rbp),%rdx
    4754:	48 8b 75 f0          	mov    -0x10(%rbp),%rsi
    4758:	48 8b 45 f0          	mov    -0x10(%rbp),%rax
    475c:	41 b8 00 00 00 00    	mov    $0x0,%r8d
    4762:	b9 00 00 00 00       	mov    $0x0,%ecx
    4767:	48 89 c7             	mov    %rax,%rdi
    476a:	e8 99 0d 00 00       	callq  5508 <xQueueGenericCreateStatic>
    476f:	48 09 45 e8          	or     %rax,-0x18(%rbp)
    4773:	48 8d 55 e0          	lea    -0x20(%rbp),%rdx
    4777:	48 8b 75 f0          	mov    -0x10(%rbp),%rsi
    477b:	48 8b 45 f0          	mov    -0x10(%rbp),%rax
    477f:	49 89 d0             	mov    %rdx,%r8
    4782:	b9 00 00 00 00       	mov    $0x0,%ecx
    4787:	ba 00 00 00 00       	mov    $0x0,%edx
    478c:	48 89 c7             	mov    %rax,%rdi
    478f:	e8 1d 49 00 00       	callq  90b1 <xStreamBufferGenericCreateStatic>
    4794:	48 09 45 e8          	or     %rax,-0x18(%rbp)
    4798:	48 8d 55 e0          	lea    -0x20(%rbp),%rdx
    479c:	48 8b 75 f0          	mov    -0x10(%rbp),%rsi
    47a0:	48 8b 45 f0          	mov    -0x10(%rbp),%rax
    47a4:	41 b8 00 00 00 00    	mov    $0x0,%r8d
    47aa:	48 89 d1             	mov    %rdx,%rcx
    47ad:	ba 00 00 00 00       	mov    $0x0,%edx
    47b2:	48 89 c7             	mov    %rax,%rdi
    47b5:	e8 f7 48 00 00       	callq  90b1 <xStreamBufferGenericCreateStatic>
    47ba:	48 09 45 e8          	or     %rax,-0x18(%rbp)
    47be:	48 83 7d e8 00       	cmpq   $0x0,-0x18(%rbp)
    47c3:	74 08                	je     47cd <prvStaticAllocationsWithNullBuffers+0x12c>
    47c5:	48 c7 45 e0 00 00 00 	movq   $0x0,-0x20(%rbp)
    47cc:	00 
    47cd:	48 8b 45 e0          	mov    -0x20(%rbp),%rax
    47d1:	48 8b 4d f8          	mov    -0x8(%rbp),%rcx
    47d5:	64 48 33 0c 25 28 00 	xor    %fs:0x28,%rcx
    47dc:	00 00 
    47de:	74 05                	je     47e5 <prvStaticAllocationsWithNullBuffers+0x144>
    47e0:	e8 eb dc ff ff       	callq  24d0 <__stack_chk_fail@plt>
    47e5:	c9                   	leaveq 
    47e6:	c3                   	retq   

00000000000047e7 <prvTraceUtils>:
    47e7:	f3 0f 1e fa          	endbr64 
    47eb:	55                   	push   %rbp
    47ec:	48 89 e5             	mov    %rsp,%rbp
    47ef:	48 83 ec 50          	sub    $0x50,%rsp
    47f3:	48 c7 45 b8 01 00 00 	movq   $0x1,-0x48(%rbp)
    47fa:	00 
    47fb:	48 c7 45 c0 64 00 00 	movq   $0x64,-0x40(%rbp)
    4802:	00 
    4803:	48 c7 45 c8 01 00 00 	movq   $0x1,-0x38(%rbp)
    480a:	00 
    480b:	e8 69 65 00 00       	callq  ad79 <xEventGroupCreate>
    4810:	48 89 45 d0          	mov    %rax,-0x30(%rbp)
    4814:	48 83 7d d0 00       	cmpq   $0x0,-0x30(%rbp)
    4819:	74 52                	je     486d <prvTraceUtils+0x86>
    481b:	48 8b 55 c0          	mov    -0x40(%rbp),%rdx
    481f:	48 8b 45 d0          	mov    -0x30(%rbp),%rax
    4823:	48 89 d6             	mov    %rdx,%rsi
    4826:	48 89 c7             	mov    %rax,%rdi
    4829:	e8 8c 73 00 00       	callq  bbba <vEventGroupSetNumber>
    482e:	bf 00 00 00 00       	mov    $0x0,%edi
    4833:	e8 4b 73 00 00       	callq  bb83 <uxEventGroupGetNumber>
    4838:	48 85 c0             	test   %rax,%rax
    483b:	74 08                	je     4845 <prvTraceUtils+0x5e>
    483d:	48 c7 45 b8 00 00 00 	movq   $0x0,-0x48(%rbp)
    4844:	00 
    4845:	48 8b 45 d0          	mov    -0x30(%rbp),%rax
    4849:	48 89 c7             	mov    %rax,%rdi
    484c:	e8 32 73 00 00       	callq  bb83 <uxEventGroupGetNumber>
    4851:	48 39 45 c0          	cmp    %rax,-0x40(%rbp)
    4855:	74 08                	je     485f <prvTraceUtils+0x78>
    4857:	48 c7 45 b8 00 00 00 	movq   $0x0,-0x48(%rbp)
    485e:	00 
    485f:	48 8b 45 d0          	mov    -0x30(%rbp),%rax
    4863:	48 89 c7             	mov    %rax,%rdi
    4866:	e8 78 70 00 00       	callq  b8e3 <vEventGroupDelete>
    486b:	eb 08                	jmp    4875 <prvTraceUtils+0x8e>
    486d:	48 c7 45 b8 00 00 00 	movq   $0x0,-0x48(%rbp)
    4874:	00 
    4875:	48 8b 45 c8          	mov    -0x38(%rbp),%rax
    4879:	ba 00 00 00 00       	mov    $0x0,%edx
    487e:	be 08 00 00 00       	mov    $0x8,%esi
    4883:	48 89 c7             	mov    %rax,%rdi
    4886:	e8 68 0d 00 00       	callq  55f3 <xQueueGenericCreate>
    488b:	48 89 45 d8          	mov    %rax,-0x28(%rbp)
    488f:	48 83 7d d8 00       	cmpq   $0x0,-0x28(%rbp)
    4894:	74 53                	je     48e9 <prvTraceUtils+0x102>
    4896:	48 8b 55 c0          	mov    -0x40(%rbp),%rdx
    489a:	48 8b 45 d8          	mov    -0x28(%rbp),%rax
    489e:	48 89 d6             	mov    %rdx,%rsi
    48a1:	48 89 c7             	mov    %rax,%rdi
    48a4:	e8 4f 38 00 00       	callq  80f8 <vQueueSetQueueNumber>
    48a9:	48 8b 45 d8          	mov    -0x28(%rbp),%rax
    48ad:	48 89 c7             	mov    %rax,%rdi
    48b0:	e8 2a 38 00 00       	callq  80df <uxQueueGetQueueNumber>
    48b5:	48 39 45 c0          	cmp    %rax,-0x40(%rbp)
    48b9:	74 08                	je     48c3 <prvTraceUtils+0xdc>
    48bb:	48 c7 45 b8 00 00 00 	movq   $0x0,-0x48(%rbp)
    48c2:	00 
    48c3:	48 8b 45 d8          	mov    -0x28(%rbp),%rax
    48c7:	48 89 c7             	mov    %rax,%rdi
    48ca:	e8 4b 38 00 00       	callq  811a <ucQueueGetQueueType>
    48cf:	84 c0                	test   %al,%al
    48d1:	74 08                	je     48db <prvTraceUtils+0xf4>
    48d3:	48 c7 45 b8 00 00 00 	movq   $0x0,-0x48(%rbp)
    48da:	00 
    48db:	48 8b 45 d8          	mov    -0x28(%rbp),%rax
    48df:	48 89 c7             	mov    %rax,%rdi
    48e2:	e8 07 36 00 00       	callq  7eee <vQueueDelete>
    48e7:	eb 08                	jmp    48f1 <prvTraceUtils+0x10a>
    48e9:	48 c7 45 b8 00 00 00 	movq   $0x0,-0x48(%rbp)
    48f0:	00 
    48f1:	48 c7 45 e0 64 00 00 	movq   $0x64,-0x20(%rbp)
    48f8:	00 
    48f9:	e8 80 ad 00 00       	callq  f67e <xTaskGetCurrentTaskHandle>
    48fe:	48 89 45 e8          	mov    %rax,-0x18(%rbp)
    4902:	48 8b 55 e0          	mov    -0x20(%rbp),%rdx
    4906:	48 8b 45 e8          	mov    -0x18(%rbp),%rax
    490a:	48 89 d6             	mov    %rdx,%rsi
    490d:	48 89 c7             	mov    %rax,%rdi
    4910:	e8 06 a8 00 00       	callq  f11b <vTaskSetTaskNumber>
    4915:	48 8b 45 e8          	mov    -0x18(%rbp),%rax
    4919:	48 89 c7             	mov    %rax,%rdi
    491c:	e8 c0 a7 00 00       	callq  f0e1 <uxTaskGetTaskNumber>
    4921:	48 39 45 e0          	cmp    %rax,-0x20(%rbp)
    4925:	74 08                	je     492f <prvTraceUtils+0x148>
    4927:	48 c7 45 b8 00 00 00 	movq   $0x0,-0x48(%rbp)
    492e:	00 
    492f:	bf 00 00 00 00       	mov    $0x0,%edi
    4934:	e8 a8 a7 00 00       	callq  f0e1 <uxTaskGetTaskNumber>
    4939:	48 85 c0             	test   %rax,%rax
    493c:	74 08                	je     4946 <prvTraceUtils+0x15f>
    493e:	48 c7 45 b8 00 00 00 	movq   $0x0,-0x48(%rbp)
    4945:	00 
    4946:	ba 00 00 00 00       	mov    $0x0,%edx
    494b:	be 00 00 00 00       	mov    $0x0,%esi
    4950:	bf 04 00 00 00       	mov    $0x4,%edi
    4955:	e8 08 45 00 00       	callq  8e62 <xStreamBufferGenericCreate>
    495a:	48 89 45 f0          	mov    %rax,-0x10(%rbp)
    495e:	48 83 7d f0 00       	cmpq   $0x0,-0x10(%rbp)
    4963:	74 53                	je     49b8 <prvTraceUtils+0x1d1>
    4965:	48 8b 55 e0          	mov    -0x20(%rbp),%rdx
    4969:	48 8b 45 f0          	mov    -0x10(%rbp),%rax
    496d:	48 89 d6             	mov    %rdx,%rsi
    4970:	48 89 c7             	mov    %rax,%rdi
    4973:	e8 53 62 00 00       	callq  abcb <vStreamBufferSetStreamBufferNumber>
    4978:	48 8b 45 f0          	mov    -0x10(%rbp),%rax
    497c:	48 89 c7             	mov    %rax,%rdi
    497f:	e8 31 62 00 00       	callq  abb5 <uxStreamBufferGetStreamBufferNumber>
    4984:	48 39 45 e0          	cmp    %rax,-0x20(%rbp)
    4988:	74 08                	je     4992 <prvTraceUtils+0x1ab>
    498a:	48 c7 45 b8 00 00 00 	movq   $0x0,-0x48(%rbp)
    4991:	00 
    4992:	48 8b 45 f0          	mov    -0x10(%rbp),%rax
    4996:	48 89 c7             	mov    %rax,%rdi
    4999:	e8 4c 62 00 00       	callq  abea <ucStreamBufferGetStreamBufferType>
    499e:	84 c0                	test   %al,%al
    49a0:	74 08                	je     49aa <prvTraceUtils+0x1c3>
    49a2:	48 c7 45 b8 00 00 00 	movq   $0x0,-0x48(%rbp)
    49a9:	00 
    49aa:	48 8b 45 f0          	mov    -0x10(%rbp),%rax
    49ae:	48 89 c7             	mov    %rax,%rdi
    49b1:	e8 96 49 00 00       	callq  934c <vStreamBufferDelete>
    49b6:	eb 08                	jmp    49c0 <prvTraceUtils+0x1d9>
    49b8:	48 c7 45 b8 00 00 00 	movq   $0x0,-0x48(%rbp)
    49bf:	00 
    49c0:	ba 01 00 00 00       	mov    $0x1,%edx
    49c5:	be 00 00 00 00       	mov    $0x0,%esi
    49ca:	bf 04 00 00 00       	mov    $0x4,%edi
    49cf:	e8 8e 44 00 00       	callq  8e62 <xStreamBufferGenericCreate>
    49d4:	48 89 45 f8          	mov    %rax,-0x8(%rbp)
    49d8:	48 83 7d f8 00       	cmpq   $0x0,-0x8(%rbp)
    49dd:	74 26                	je     4a05 <prvTraceUtils+0x21e>
    49df:	48 8b 45 f8          	mov    -0x8(%rbp),%rax
    49e3:	48 89 c7             	mov    %rax,%rdi
    49e6:	e8 ff 61 00 00       	callq  abea <ucStreamBufferGetStreamBufferType>
    49eb:	84 c0                	test   %al,%al
    49ed:	75 08                	jne    49f7 <prvTraceUtils+0x210>
    49ef:	48 c7 45 b8 00 00 00 	movq   $0x0,-0x48(%rbp)
    49f6:	00 
    49f7:	48 8b 45 f8          	mov    -0x8(%rbp),%rax
    49fb:	48 89 c7             	mov    %rax,%rdi
    49fe:	e8 49 49 00 00       	callq  934c <vStreamBufferDelete>
    4a03:	eb 08                	jmp    4a0d <prvTraceUtils+0x226>
    4a05:	48 c7 45 b8 00 00 00 	movq   $0x0,-0x48(%rbp)
    4a0c:	00 
    4a0d:	48 8b 45 b8          	mov    -0x48(%rbp),%rax
    4a11:	c9                   	leaveq 
    4a12:	c3                   	retq   

0000000000004a13 <prvPeekTimeout>:
    4a13:	f3 0f 1e fa          	endbr64 
    4a17:	55                   	push   %rbp
    4a18:	48 89 e5             	mov    %rsp,%rbp
    4a1b:	48 83 ec 30          	sub    $0x30,%rsp
    4a1f:	64 48 8b 04 25 28 00 	mov    %fs:0x28,%rax
    4a26:	00 00 
    4a28:	48 89 45 f8          	mov    %rax,-0x8(%rbp)
    4a2c:	31 c0                	xor    %eax,%eax
    4a2e:	48 c7 45 e0 01 00 00 	movq   $0x1,-0x20(%rbp)
    4a35:	00 
    4a36:	48 c7 45 d8 01 00 00 	movq   $0x1,-0x28(%rbp)
    4a3d:	00 
    4a3e:	48 c7 45 e8 02 00 00 	movq   $0x2,-0x18(%rbp)
    4a45:	00 
    4a46:	48 8b 45 e0          	mov    -0x20(%rbp),%rax
    4a4a:	ba 00 00 00 00       	mov    $0x0,%edx
    4a4f:	be 08 00 00 00       	mov    $0x8,%esi
    4a54:	48 89 c7             	mov    %rax,%rdi
    4a57:	e8 97 0b 00 00       	callq  55f3 <xQueueGenericCreate>
    4a5c:	48 89 45 f0          	mov    %rax,-0x10(%rbp)
    4a60:	48 83 7d f0 00       	cmpq   $0x0,-0x10(%rbp)
    4a65:	74 4b                	je     4ab2 <prvPeekTimeout+0x9f>
    4a67:	48 8b 45 f0          	mov    -0x10(%rbp),%rax
    4a6b:	48 89 c7             	mov    %rax,%rdi
    4a6e:	e8 9b 33 00 00       	callq  7e0e <uxQueueMessagesWaiting>
    4a73:	48 85 c0             	test   %rax,%rax
    4a76:	74 08                	je     4a80 <prvPeekTimeout+0x6d>
    4a78:	48 c7 45 d8 00 00 00 	movq   $0x0,-0x28(%rbp)
    4a7f:	00 
    4a80:	48 8b 55 e8          	mov    -0x18(%rbp),%rdx
    4a84:	48 8d 4d d0          	lea    -0x30(%rbp),%rcx
    4a88:	48 8b 45 f0          	mov    -0x10(%rbp),%rax
    4a8c:	48 89 ce             	mov    %rcx,%rsi
    4a8f:	48 89 c7             	mov    %rax,%rdi
    4a92:	e8 db 2a 00 00       	callq  7572 <xQueuePeek>
    4a97:	48 85 c0             	test   %rax,%rax
    4a9a:	74 08                	je     4aa4 <prvPeekTimeout+0x91>
    4a9c:	48 c7 45 d8 00 00 00 	movq   $0x0,-0x28(%rbp)
    4aa3:	00 
    4aa4:	48 8b 45 f0          	mov    -0x10(%rbp),%rax
    4aa8:	48 89 c7             	mov    %rax,%rdi
    4aab:	e8 3e 34 00 00       	callq  7eee <vQueueDelete>
    4ab0:	eb 08                	jmp    4aba <prvPeekTimeout+0xa7>
    4ab2:	48 c7 45 d8 00 00 00 	movq   $0x0,-0x28(%rbp)
    4ab9:	00 
    4aba:	48 8b 45 d8          	mov    -0x28(%rbp),%rax
    4abe:	48 8b 4d f8          	mov    -0x8(%rbp),%rcx
    4ac2:	64 48 33 0c 25 28 00 	xor    %fs:0x28,%rcx
    4ac9:	00 00 
    4acb:	74 05                	je     4ad2 <prvPeekTimeout+0xbf>
    4acd:	e8 fe d9 ff ff       	callq  24d0 <__stack_chk_fail@plt>
    4ad2:	c9                   	leaveq 
    4ad3:	c3                   	retq   

0000000000004ad4 <prvQueueQueryFromISR>:
    4ad4:	f3 0f 1e fa          	endbr64 
    4ad8:	55                   	push   %rbp
    4ad9:	48 89 e5             	mov    %rsp,%rbp
    4adc:	48 83 ec 30          	sub    $0x30,%rsp
    4ae0:	64 48 8b 04 25 28 00 	mov    %fs:0x28,%rax
    4ae7:	00 00 
    4ae9:	48 89 45 f8          	mov    %rax,-0x8(%rbp)
    4aed:	31 c0                	xor    %eax,%eax
    4aef:	48 c7 45 d8 01 00 00 	movq   $0x1,-0x28(%rbp)
    4af6:	00 
    4af7:	48 c7 45 d0 01 00 00 	movq   $0x1,-0x30(%rbp)
    4afe:	00 
    4aff:	48 c7 45 e0 01 00 00 	movq   $0x1,-0x20(%rbp)
    4b06:	00 
    4b07:	48 8d 05 07 2d 02 00 	lea    0x22d07(%rip),%rax        # 27815 <_IO_stdin_used+0x815>
    4b0e:	48 89 45 e8          	mov    %rax,-0x18(%rbp)
    4b12:	48 c7 45 f0 00 00 00 	movq   $0x0,-0x10(%rbp)
    4b19:	00 
    4b1a:	48 8b 45 e0          	mov    -0x20(%rbp),%rax
    4b1e:	ba 00 00 00 00       	mov    $0x0,%edx
    4b23:	be 08 00 00 00       	mov    $0x8,%esi
    4b28:	48 89 c7             	mov    %rax,%rdi
    4b2b:	e8 c3 0a 00 00       	callq  55f3 <xQueueGenericCreate>
    4b30:	48 89 45 f0          	mov    %rax,-0x10(%rbp)
    4b34:	48 83 7d f0 00       	cmpq   $0x0,-0x10(%rbp)
    4b39:	0f 84 0c 01 00 00    	je     4c4b <prvQueueQueryFromISR+0x177>
    4b3f:	48 8b 55 e8          	mov    -0x18(%rbp),%rdx
    4b43:	48 8b 45 f0          	mov    -0x10(%rbp),%rax
    4b47:	48 89 d6             	mov    %rdx,%rsi
    4b4a:	48 89 c7             	mov    %rax,%rdi
    4b4d:	e8 66 3a 00 00       	callq  85b8 <vQueueAddToRegistry>
    4b52:	48 8b 45 f0          	mov    -0x10(%rbp),%rax
    4b56:	48 89 c7             	mov    %rax,%rdi
    4b59:	e8 83 3b 00 00       	callq  86e1 <pcQueueGetName>
    4b5e:	48 89 c2             	mov    %rax,%rdx
    4b61:	48 8b 45 e8          	mov    -0x18(%rbp),%rax
    4b65:	48 89 c6             	mov    %rax,%rsi
    4b68:	48 89 d7             	mov    %rdx,%rdi
    4b6b:	e8 e0 d9 ff ff       	callq  2550 <strcmp@plt>
    4b70:	85 c0                	test   %eax,%eax
    4b72:	74 08                	je     4b7c <prvQueueQueryFromISR+0xa8>
    4b74:	48 c7 45 d8 00 00 00 	movq   $0x0,-0x28(%rbp)
    4b7b:	00 
    4b7c:	48 8b 45 f0          	mov    -0x10(%rbp),%rax
    4b80:	48 89 c7             	mov    %rax,%rdi
    4b83:	e8 24 33 00 00       	callq  7eac <uxQueueMessagesWaitingFromISR>
    4b88:	48 85 c0             	test   %rax,%rax
    4b8b:	74 08                	je     4b95 <prvQueueQueryFromISR+0xc1>
    4b8d:	48 c7 45 d8 00 00 00 	movq   $0x0,-0x28(%rbp)
    4b94:	00 
    4b95:	48 8b 45 f0          	mov    -0x10(%rbp),%rax
    4b99:	48 89 c7             	mov    %rax,%rdi
    4b9c:	e8 1e 39 00 00       	callq  84bf <xQueueIsQueueEmptyFromISR>
    4ba1:	48 83 f8 01          	cmp    $0x1,%rax
    4ba5:	74 08                	je     4baf <prvQueueQueryFromISR+0xdb>
    4ba7:	48 c7 45 d8 00 00 00 	movq   $0x0,-0x28(%rbp)
    4bae:	00 
    4baf:	48 8b 45 f0          	mov    -0x10(%rbp),%rax
    4bb3:	48 89 c7             	mov    %rax,%rdi
    4bb6:	e8 a0 39 00 00       	callq  855b <xQueueIsQueueFullFromISR>
    4bbb:	48 85 c0             	test   %rax,%rax
    4bbe:	74 08                	je     4bc8 <prvQueueQueryFromISR+0xf4>
    4bc0:	48 c7 45 d8 00 00 00 	movq   $0x0,-0x28(%rbp)
    4bc7:	00 
    4bc8:	48 8d 75 d0          	lea    -0x30(%rbp),%rsi
    4bcc:	48 8b 45 f0          	mov    -0x10(%rbp),%rax
    4bd0:	b9 00 00 00 00       	mov    $0x0,%ecx
    4bd5:	ba 00 00 00 00       	mov    $0x0,%edx
    4bda:	48 89 c7             	mov    %rax,%rdi
    4bdd:	e8 a7 17 00 00       	callq  6389 <xQueueGenericSendFromISR>
    4be2:	48 83 f8 01          	cmp    $0x1,%rax
    4be6:	74 08                	je     4bf0 <prvQueueQueryFromISR+0x11c>
    4be8:	48 c7 45 d8 00 00 00 	movq   $0x0,-0x28(%rbp)
    4bef:	00 
    4bf0:	48 8b 45 f0          	mov    -0x10(%rbp),%rax
    4bf4:	48 89 c7             	mov    %rax,%rdi
    4bf7:	e8 b0 32 00 00       	callq  7eac <uxQueueMessagesWaitingFromISR>
    4bfc:	48 83 f8 01          	cmp    $0x1,%rax
    4c00:	74 08                	je     4c0a <prvQueueQueryFromISR+0x136>
    4c02:	48 c7 45 d8 00 00 00 	movq   $0x0,-0x28(%rbp)
    4c09:	00 
    4c0a:	48 8b 45 f0          	mov    -0x10(%rbp),%rax
    4c0e:	48 89 c7             	mov    %rax,%rdi
    4c11:	e8 a9 38 00 00       	callq  84bf <xQueueIsQueueEmptyFromISR>
    4c16:	48 85 c0             	test   %rax,%rax
    4c19:	74 08                	je     4c23 <prvQueueQueryFromISR+0x14f>
    4c1b:	48 c7 45 d8 00 00 00 	movq   $0x0,-0x28(%rbp)
    4c22:	00 
    4c23:	48 8b 45 f0          	mov    -0x10(%rbp),%rax
    4c27:	48 89 c7             	mov    %rax,%rdi
    4c2a:	e8 2c 39 00 00       	callq  855b <xQueueIsQueueFullFromISR>
    4c2f:	48 83 f8 01          	cmp    $0x1,%rax
    4c33:	74 08                	je     4c3d <prvQueueQueryFromISR+0x169>
    4c35:	48 c7 45 d8 00 00 00 	movq   $0x0,-0x28(%rbp)
    4c3c:	00 
    4c3d:	48 8b 45 f0          	mov    -0x10(%rbp),%rax
    4c41:	48 89 c7             	mov    %rax,%rdi
    4c44:	e8 a5 32 00 00       	callq  7eee <vQueueDelete>
    4c49:	eb 08                	jmp    4c53 <prvQueueQueryFromISR+0x17f>
    4c4b:	48 c7 45 d8 00 00 00 	movq   $0x0,-0x28(%rbp)
    4c52:	00 
    4c53:	48 8b 45 d8          	mov    -0x28(%rbp),%rax
    4c57:	48 8b 4d f8          	mov    -0x8(%rbp),%rcx
    4c5b:	64 48 33 0c 25 28 00 	xor    %fs:0x28,%rcx
    4c62:	00 00 
    4c64:	74 05                	je     4c6b <prvQueueQueryFromISR+0x197>
    4c66:	e8 65 d8 ff ff       	callq  24d0 <__stack_chk_fail@plt>
    4c6b:	c9                   	leaveq 
    4c6c:	c3                   	retq   

0000000000004c6d <prvTaskQueryFunctions>:
    4c6d:	f3 0f 1e fa          	endbr64 
    4c71:	55                   	push   %rbp
    4c72:	48 89 e5             	mov    %rsp,%rbp
    4c75:	53                   	push   %rbx
    4c76:	48 83 ec 58          	sub    $0x58,%rsp
    4c7a:	64 48 8b 04 25 28 00 	mov    %fs:0x28,%rax
    4c81:	00 00 
    4c83:	48 89 45 e8          	mov    %rax,-0x18(%rbp)
    4c87:	31 c0                	xor    %eax,%eax
    4c89:	48 c7 45 b8 01 00 00 	movq   $0x1,-0x48(%rbp)
    4c90:	00 
    4c91:	c7 45 b4 ff 0f 00 00 	movl   $0xfff,-0x4c(%rbp)
    4c98:	b9 00 00 00 00       	mov    $0x0,%ecx
    4c9d:	ba 01 00 00 00       	mov    $0x1,%edx
    4ca2:	48 8d 35 77 c8 02 00 	lea    0x2c877(%rip),%rsi        # 31520 <xStatus.3312>
    4ca9:	bf 00 00 00 00       	mov    $0x0,%edi
    4cae:	e8 df a5 00 00       	callq  f292 <vTaskGetInfo>
    4cb3:	bf 00 00 00 00       	mov    $0x0,%edi
    4cb8:	e8 b0 a8 00 00       	callq  f56d <uxTaskGetStackHighWaterMark>
    4cbd:	8b 15 9d c8 02 00    	mov    0x2c89d(%rip),%edx        # 31560 <xStatus.3312+0x40>
    4cc3:	89 d2                	mov    %edx,%edx
    4cc5:	48 39 d0             	cmp    %rdx,%rax
    4cc8:	74 08                	je     4cd2 <prvTaskQueryFunctions+0x65>
    4cca:	48 c7 45 b8 00 00 00 	movq   $0x0,-0x48(%rbp)
    4cd1:	00 
    4cd2:	bf 00 00 00 00       	mov    $0x0,%edi
    4cd7:	e8 49 a8 00 00       	callq  f525 <uxTaskGetStackHighWaterMark2>
    4cdc:	8b 15 7e c8 02 00    	mov    0x2c87e(%rip),%edx        # 31560 <xStatus.3312+0x40>
    4ce2:	39 d0                	cmp    %edx,%eax
    4ce4:	74 08                	je     4cee <prvTaskQueryFunctions+0x81>
    4ce6:	48 c7 45 b8 00 00 00 	movq   $0x0,-0x48(%rbp)
    4ced:	00 
    4cee:	e8 82 cc 00 00       	callq  11975 <xTimerGetTimerDaemonTaskHandle>
    4cf3:	48 89 45 c8          	mov    %rax,-0x38(%rbp)
    4cf7:	48 8b 45 c8          	mov    -0x38(%rbp),%rax
    4cfb:	48 89 c7             	mov    %rax,%rdi
    4cfe:	e8 5e 80 00 00       	callq  cd61 <vTaskSuspend>
    4d03:	48 8b 45 c8          	mov    -0x38(%rbp),%rax
    4d07:	b9 05 00 00 00       	mov    $0x5,%ecx
    4d0c:	ba 00 00 00 00       	mov    $0x0,%edx
    4d11:	48 8d 35 08 c8 02 00 	lea    0x2c808(%rip),%rsi        # 31520 <xStatus.3312>
    4d18:	48 89 c7             	mov    %rax,%rdi
    4d1b:	e8 72 a5 00 00       	callq  f292 <vTaskGetInfo>
    4d20:	8b 05 12 c8 02 00    	mov    0x2c812(%rip),%eax        # 31538 <xStatus.3312+0x18>
    4d26:	83 f8 03             	cmp    $0x3,%eax
    4d29:	74 08                	je     4d33 <prvTaskQueryFunctions+0xc6>
    4d2b:	48 c7 45 b8 00 00 00 	movq   $0x0,-0x48(%rbp)
    4d32:	00 
    4d33:	48 8b 1d 0e c8 02 00 	mov    0x2c80e(%rip),%rbx        # 31548 <xStatus.3312+0x28>
    4d3a:	48 8b 45 c8          	mov    -0x38(%rbp),%rax
    4d3e:	48 89 c7             	mov    %rax,%rdi
    4d41:	e8 a7 7c 00 00       	callq  c9ed <uxTaskPriorityGetFromISR>
    4d46:	48 39 c3             	cmp    %rax,%rbx
    4d49:	74 08                	je     4d53 <prvTaskQueryFunctions+0xe6>
    4d4b:	48 c7 45 b8 00 00 00 	movq   $0x0,-0x48(%rbp)
    4d52:	00 
    4d53:	48 8b 05 ee c7 02 00 	mov    0x2c7ee(%rip),%rax        # 31548 <xStatus.3312+0x28>
    4d5a:	48 83 f8 06          	cmp    $0x6,%rax
    4d5e:	74 08                	je     4d68 <prvTaskQueryFunctions+0xfb>
    4d60:	48 c7 45 b8 00 00 00 	movq   $0x0,-0x48(%rbp)
    4d67:	00 
    4d68:	48 8b 45 c8          	mov    -0x38(%rbp),%rax
    4d6c:	48 89 c7             	mov    %rax,%rdi
    4d6f:	e8 22 84 00 00       	callq  d196 <xTaskResumeFromISR>
    4d74:	48 8b 45 c8          	mov    -0x38(%rbp),%rax
    4d78:	b9 05 00 00 00       	mov    $0x5,%ecx
    4d7d:	ba 01 00 00 00       	mov    $0x1,%edx
    4d82:	48 8d 35 97 c7 02 00 	lea    0x2c797(%rip),%rsi        # 31520 <xStatus.3312>
    4d89:	48 89 c7             	mov    %rax,%rdi
    4d8c:	e8 01 a5 00 00       	callq  f292 <vTaskGetInfo>
    4d91:	8b 05 a1 c7 02 00    	mov    0x2c7a1(%rip),%eax        # 31538 <xStatus.3312+0x18>
    4d97:	83 f8 01             	cmp    $0x1,%eax
    4d9a:	74 13                	je     4daf <prvTaskQueryFunctions+0x142>
    4d9c:	8b 05 96 c7 02 00    	mov    0x2c796(%rip),%eax        # 31538 <xStatus.3312+0x18>
    4da2:	83 f8 02             	cmp    $0x2,%eax
    4da5:	74 08                	je     4daf <prvTaskQueryFunctions+0x142>
    4da7:	48 c7 45 b8 00 00 00 	movq   $0x0,-0x48(%rbp)
    4dae:	00 
    4daf:	48 8b 45 c8          	mov    -0x38(%rbp),%rax
    4db3:	48 89 c7             	mov    %rax,%rdi
    4db6:	e8 b2 a7 00 00       	callq  f56d <uxTaskGetStackHighWaterMark>
    4dbb:	8b 15 9f c7 02 00    	mov    0x2c79f(%rip),%edx        # 31560 <xStatus.3312+0x40>
    4dc1:	89 d2                	mov    %edx,%edx
    4dc3:	48 39 d0             	cmp    %rdx,%rax
    4dc6:	74 08                	je     4dd0 <prvTaskQueryFunctions+0x163>
    4dc8:	48 c7 45 b8 00 00 00 	movq   $0x0,-0x48(%rbp)
    4dcf:	00 
    4dd0:	48 8b 45 c8          	mov    -0x38(%rbp),%rax
    4dd4:	48 89 c7             	mov    %rax,%rdi
    4dd7:	e8 49 a7 00 00       	callq  f525 <uxTaskGetStackHighWaterMark2>
    4ddc:	8b 15 7e c7 02 00    	mov    0x2c77e(%rip),%edx        # 31560 <xStatus.3312+0x40>
    4de2:	39 d0                	cmp    %edx,%eax
    4de4:	74 08                	je     4dee <prvTaskQueryFunctions+0x181>
    4de6:	48 c7 45 b8 00 00 00 	movq   $0x0,-0x48(%rbp)
    4ded:	00 
    4dee:	e8 34 8f 00 00       	callq  dd27 <xTaskGetIdleTaskHandle>
    4df3:	48 89 45 d0          	mov    %rax,-0x30(%rbp)
    4df7:	48 8b 45 d0          	mov    -0x30(%rbp),%rax
    4dfb:	48 89 c7             	mov    %rax,%rdi
    4dfe:	e8 a8 8f 00 00       	callq  ddab <xTaskAbortDelay>
    4e03:	48 85 c0             	test   %rax,%rax
    4e06:	74 08                	je     4e10 <prvTaskQueryFunctions+0x1a3>
    4e08:	48 c7 45 b8 00 00 00 	movq   $0x0,-0x48(%rbp)
    4e0f:	00 
    4e10:	e8 bd 8a 00 00       	callq  d8d2 <uxTaskGetNumberOfTasks>
    4e15:	48 89 45 d8          	mov    %rax,-0x28(%rbp)
    4e19:	48 8b 55 d8          	mov    -0x28(%rbp),%rdx
    4e1d:	48 89 d0             	mov    %rdx,%rax
    4e20:	48 c1 e0 03          	shl    $0x3,%rax
    4e24:	48 01 d0             	add    %rdx,%rax
    4e27:	48 c1 e0 03          	shl    $0x3,%rax
    4e2b:	48 89 c7             	mov    %rax,%rdi
    4e2e:	e8 4d d8 00 00       	callq  12680 <pvPortMalloc>
    4e33:	48 89 05 2e c7 02 00 	mov    %rax,0x2c72e(%rip)        # 31568 <pxStatusArray.3313>
    4e3a:	48 8b 05 27 c7 02 00 	mov    0x2c727(%rip),%rax        # 31568 <pxStatusArray.3313>
    4e41:	48 85 c0             	test   %rax,%rax
    4e44:	0f 84 30 01 00 00    	je     4f7a <prvTaskQueryFunctions+0x30d>
    4e4a:	48 8b 45 d8          	mov    -0x28(%rbp),%rax
    4e4e:	48 d1 e8             	shr    %rax
    4e51:	48 89 c1             	mov    %rax,%rcx
    4e54:	48 8b 05 0d c7 02 00 	mov    0x2c70d(%rip),%rax        # 31568 <pxStatusArray.3313>
    4e5b:	ba 00 00 00 00       	mov    $0x0,%edx
    4e60:	48 89 ce             	mov    %rcx,%rsi
    4e63:	48 89 c7             	mov    %rax,%rdi
    4e66:	e8 30 8d 00 00       	callq  db9b <uxTaskGetSystemState>
    4e6b:	48 89 45 e0          	mov    %rax,-0x20(%rbp)
    4e6f:	48 83 7d e0 00       	cmpq   $0x0,-0x20(%rbp)
    4e74:	74 08                	je     4e7e <prvTaskQueryFunctions+0x211>
    4e76:	48 c7 45 b8 00 00 00 	movq   $0x0,-0x48(%rbp)
    4e7d:	00 
    4e7e:	48 8b 05 e3 c6 02 00 	mov    0x2c6e3(%rip),%rax        # 31568 <pxStatusArray.3313>
    4e85:	48 8d 55 ac          	lea    -0x54(%rbp),%rdx
    4e89:	48 8b 4d d8          	mov    -0x28(%rbp),%rcx
    4e8d:	48 89 ce             	mov    %rcx,%rsi
    4e90:	48 89 c7             	mov    %rax,%rdi
    4e93:	e8 03 8d 00 00       	callq  db9b <uxTaskGetSystemState>
    4e98:	48 8b 55 d8          	mov    -0x28(%rbp),%rdx
    4e9c:	48 89 d0             	mov    %rdx,%rax
    4e9f:	48 c1 e0 03          	shl    $0x3,%rax
    4ea3:	48 01 d0             	add    %rdx,%rax
    4ea6:	48 c1 e0 03          	shl    $0x3,%rax
    4eaa:	48 89 c2             	mov    %rax,%rdx
    4ead:	48 8b 05 b4 c6 02 00 	mov    0x2c6b4(%rip),%rax        # 31568 <pxStatusArray.3313>
    4eb4:	be aa 00 00 00       	mov    $0xaa,%esi
    4eb9:	48 89 c7             	mov    %rax,%rdi
    4ebc:	e8 4f d6 ff ff       	callq  2510 <memset@plt>
    4ec1:	48 8b 05 a0 c6 02 00 	mov    0x2c6a0(%rip),%rax        # 31568 <pxStatusArray.3313>
    4ec8:	48 8d 55 b0          	lea    -0x50(%rbp),%rdx
    4ecc:	48 8b 4d d8          	mov    -0x28(%rbp),%rcx
    4ed0:	48 89 ce             	mov    %rcx,%rsi
    4ed3:	48 89 c7             	mov    %rax,%rdi
    4ed6:	e8 c0 8c 00 00       	callq  db9b <uxTaskGetSystemState>
    4edb:	48 89 45 e0          	mov    %rax,-0x20(%rbp)
    4edf:	8b 55 b0             	mov    -0x50(%rbp),%edx
    4ee2:	8b 45 ac             	mov    -0x54(%rbp),%eax
    4ee5:	29 c2                	sub    %eax,%edx
    4ee7:	89 d0                	mov    %edx,%eax
    4ee9:	39 45 b4             	cmp    %eax,-0x4c(%rbp)
    4eec:	73 08                	jae    4ef6 <prvTaskQueryFunctions+0x289>
    4eee:	48 c7 45 b8 00 00 00 	movq   $0x0,-0x48(%rbp)
    4ef5:	00 
    4ef6:	48 c7 45 c0 00 00 00 	movq   $0x0,-0x40(%rbp)
    4efd:	00 
    4efe:	eb 5f                	jmp    4f5f <prvTaskQueryFunctions+0x2f2>
    4f00:	48 8b 0d 61 c6 02 00 	mov    0x2c661(%rip),%rcx        # 31568 <pxStatusArray.3313>
    4f07:	48 8b 55 c0          	mov    -0x40(%rbp),%rdx
    4f0b:	48 89 d0             	mov    %rdx,%rax
    4f0e:	48 c1 e0 03          	shl    $0x3,%rax
    4f12:	48 01 d0             	add    %rdx,%rax
    4f15:	48 c1 e0 03          	shl    $0x3,%rax
    4f19:	48 01 c8             	add    %rcx,%rax
    4f1c:	8b 40 18             	mov    0x18(%rax),%eax
    4f1f:	83 f8 04             	cmp    $0x4,%eax
    4f22:	76 08                	jbe    4f2c <prvTaskQueryFunctions+0x2bf>
    4f24:	48 c7 45 b8 00 00 00 	movq   $0x0,-0x48(%rbp)
    4f2b:	00 
    4f2c:	48 8b 0d 35 c6 02 00 	mov    0x2c635(%rip),%rcx        # 31568 <pxStatusArray.3313>
    4f33:	48 8b 55 c0          	mov    -0x40(%rbp),%rdx
    4f37:	48 89 d0             	mov    %rdx,%rax
    4f3a:	48 c1 e0 03          	shl    $0x3,%rax
    4f3e:	48 01 d0             	add    %rdx,%rax
    4f41:	48 c1 e0 03          	shl    $0x3,%rax
    4f45:	48 01 c8             	add    %rcx,%rax
    4f48:	48 8b 40 20          	mov    0x20(%rax),%rax
    4f4c:	48 83 f8 06          	cmp    $0x6,%rax
    4f50:	76 08                	jbe    4f5a <prvTaskQueryFunctions+0x2ed>
    4f52:	48 c7 45 b8 00 00 00 	movq   $0x0,-0x48(%rbp)
    4f59:	00 
    4f5a:	48 83 45 c0 01       	addq   $0x1,-0x40(%rbp)
    4f5f:	48 8b 45 c0          	mov    -0x40(%rbp),%rax
    4f63:	48 3b 45 e0          	cmp    -0x20(%rbp),%rax
    4f67:	72 97                	jb     4f00 <prvTaskQueryFunctions+0x293>
    4f69:	48 8b 05 f8 c5 02 00 	mov    0x2c5f8(%rip),%rax        # 31568 <pxStatusArray.3313>
    4f70:	48 89 c7             	mov    %rax,%rdi
    4f73:	e8 28 d8 00 00       	callq  127a0 <vPortFree>
    4f78:	eb 08                	jmp    4f82 <prvTaskQueryFunctions+0x315>
    4f7a:	48 c7 45 b8 00 00 00 	movq   $0x0,-0x48(%rbp)
    4f81:	00 
    4f82:	48 8b 45 b8          	mov    -0x48(%rbp),%rax
    4f86:	48 8b 5d e8          	mov    -0x18(%rbp),%rbx
    4f8a:	64 48 33 1c 25 28 00 	xor    %fs:0x28,%rbx
    4f91:	00 00 
    4f93:	74 05                	je     4f9a <prvTaskQueryFunctions+0x32d>
    4f95:	e8 36 d5 ff ff       	callq  24d0 <__stack_chk_fail@plt>
    4f9a:	48 83 c4 58          	add    $0x58,%rsp
    4f9e:	5b                   	pop    %rbx
    4f9f:	5d                   	pop    %rbp
    4fa0:	c3                   	retq   

0000000000004fa1 <prvDummyTagFunction>:
    4fa1:	f3 0f 1e fa          	endbr64 
    4fa5:	55                   	push   %rbp
    4fa6:	48 89 e5             	mov    %rsp,%rbp
    4fa9:	48 89 7d f8          	mov    %rdi,-0x8(%rbp)
    4fad:	48 8b 45 f8          	mov    -0x8(%rbp),%rax
    4fb1:	5d                   	pop    %rbp
    4fb2:	c3                   	retq   

0000000000004fb3 <prvTaskTags>:
    4fb3:	f3 0f 1e fa          	endbr64 
    4fb7:	55                   	push   %rbp
    4fb8:	48 89 e5             	mov    %rsp,%rbp
    4fbb:	48 83 ec 20          	sub    $0x20,%rsp
    4fbf:	48 c7 45 e8 01 00 00 	movq   $0x1,-0x18(%rbp)
    4fc6:	00 
    4fc7:	b8 ef be ad de       	mov    $0xdeadbeef,%eax
    4fcc:	48 89 45 f0          	mov    %rax,-0x10(%rbp)
    4fd0:	e8 a0 c9 00 00       	callq  11975 <xTimerGetTimerDaemonTaskHandle>
    4fd5:	48 89 45 f8          	mov    %rax,-0x8(%rbp)
    4fd9:	48 8b 45 f8          	mov    -0x8(%rbp),%rax
    4fdd:	48 8d 35 bd ff ff ff 	lea    -0x43(%rip),%rsi        # 4fa1 <prvDummyTagFunction>
    4fe4:	48 89 c7             	mov    %rax,%rdi
    4fe7:	e8 d3 93 00 00       	callq  e3bf <vTaskSetApplicationTaskTag>
    4fec:	48 8b 45 f8          	mov    -0x8(%rbp),%rax
    4ff0:	48 89 c7             	mov    %rax,%rdi
    4ff3:	e8 13 94 00 00       	callq  e40b <xTaskGetApplicationTaskTag>
    4ff8:	48 8d 15 a2 ff ff ff 	lea    -0x5e(%rip),%rdx        # 4fa1 <prvDummyTagFunction>
    4fff:	48 39 d0             	cmp    %rdx,%rax
    5002:	74 0a                	je     500e <prvTaskTags+0x5b>
    5004:	48 c7 45 e8 00 00 00 	movq   $0x0,-0x18(%rbp)
    500b:	00 
    500c:	eb 3f                	jmp    504d <prvTaskTags+0x9a>
    500e:	48 8b 55 f0          	mov    -0x10(%rbp),%rdx
    5012:	48 8b 45 f8          	mov    -0x8(%rbp),%rax
    5016:	48 89 d6             	mov    %rdx,%rsi
    5019:	48 89 c7             	mov    %rax,%rdi
    501c:	e8 83 94 00 00       	callq  e4a4 <xTaskCallApplicationTaskHook>
    5021:	48 39 45 f0          	cmp    %rax,-0x10(%rbp)
    5025:	74 08                	je     502f <prvTaskTags+0x7c>
    5027:	48 c7 45 e8 00 00 00 	movq   $0x0,-0x18(%rbp)
    502e:	00 
    502f:	48 8b 45 f8          	mov    -0x8(%rbp),%rax
    5033:	be 00 00 00 00       	mov    $0x0,%esi
    5038:	48 89 c7             	mov    %rax,%rdi
    503b:	e8 64 94 00 00       	callq  e4a4 <xTaskCallApplicationTaskHook>
    5040:	48 85 c0             	test   %rax,%rax
    5043:	74 08                	je     504d <prvTaskTags+0x9a>
    5045:	48 c7 45 e8 00 00 00 	movq   $0x0,-0x18(%rbp)
    504c:	00 
    504d:	48 8b 45 f8          	mov    -0x8(%rbp),%rax
    5051:	48 89 c7             	mov    %rax,%rdi
    5054:	e8 f9 93 00 00       	callq  e452 <xTaskGetApplicationTaskTagFromISR>
    5059:	48 8d 15 41 ff ff ff 	lea    -0xbf(%rip),%rdx        # 4fa1 <prvDummyTagFunction>
    5060:	48 39 d0             	cmp    %rdx,%rax
    5063:	74 08                	je     506d <prvTaskTags+0xba>
    5065:	48 c7 45 e8 00 00 00 	movq   $0x0,-0x18(%rbp)
    506c:	00 
    506d:	be 00 00 00 00       	mov    $0x0,%esi
    5072:	bf 00 00 00 00       	mov    $0x0,%edi
    5077:	e8 43 93 00 00       	callq  e3bf <vTaskSetApplicationTaskTag>
    507c:	bf 00 00 00 00       	mov    $0x0,%edi
    5081:	e8 85 93 00 00       	callq  e40b <xTaskGetApplicationTaskTag>
    5086:	48 85 c0             	test   %rax,%rax
    5089:	74 08                	je     5093 <prvTaskTags+0xe0>
    508b:	48 c7 45 e8 00 00 00 	movq   $0x0,-0x18(%rbp)
    5092:	00 
    5093:	bf 00 00 00 00       	mov    $0x0,%edi
    5098:	e8 b5 93 00 00       	callq  e452 <xTaskGetApplicationTaskTagFromISR>
    509d:	48 85 c0             	test   %rax,%rax
    50a0:	74 08                	je     50aa <prvTaskTags+0xf7>
    50a2:	48 c7 45 e8 00 00 00 	movq   $0x0,-0x18(%rbp)
    50a9:	00 
    50aa:	48 8d 35 f0 fe ff ff 	lea    -0x110(%rip),%rsi        # 4fa1 <prvDummyTagFunction>
    50b1:	bf 00 00 00 00       	mov    $0x0,%edi
    50b6:	e8 04 93 00 00       	callq  e3bf <vTaskSetApplicationTaskTag>
    50bb:	bf 00 00 00 00       	mov    $0x0,%edi
    50c0:	e8 46 93 00 00       	callq  e40b <xTaskGetApplicationTaskTag>
    50c5:	48 8d 15 d5 fe ff ff 	lea    -0x12b(%rip),%rdx        # 4fa1 <prvDummyTagFunction>
    50cc:	48 39 d0             	cmp    %rdx,%rax
    50cf:	74 0a                	je     50db <prvTaskTags+0x128>
    50d1:	48 c7 45 e8 00 00 00 	movq   $0x0,-0x18(%rbp)
    50d8:	00 
    50d9:	eb 3b                	jmp    5116 <prvTaskTags+0x163>
    50db:	48 8b 45 f0          	mov    -0x10(%rbp),%rax
    50df:	48 89 c6             	mov    %rax,%rsi
    50e2:	bf 00 00 00 00       	mov    $0x0,%edi
    50e7:	e8 b8 93 00 00       	callq  e4a4 <xTaskCallApplicationTaskHook>
    50ec:	48 39 45 f0          	cmp    %rax,-0x10(%rbp)
    50f0:	74 08                	je     50fa <prvTaskTags+0x147>
    50f2:	48 c7 45 e8 00 00 00 	movq   $0x0,-0x18(%rbp)
    50f9:	00 
    50fa:	be 00 00 00 00       	mov    $0x0,%esi
    50ff:	bf 00 00 00 00       	mov    $0x0,%edi
    5104:	e8 9b 93 00 00       	callq  e4a4 <xTaskCallApplicationTaskHook>
    5109:	48 85 c0             	test   %rax,%rax
    510c:	74 08                	je     5116 <prvTaskTags+0x163>
    510e:	48 c7 45 e8 00 00 00 	movq   $0x0,-0x18(%rbp)
    5115:	00 
    5116:	bf 00 00 00 00       	mov    $0x0,%edi
    511b:	e8 32 93 00 00       	callq  e452 <xTaskGetApplicationTaskTagFromISR>
    5120:	48 8d 15 7a fe ff ff 	lea    -0x186(%rip),%rdx        # 4fa1 <prvDummyTagFunction>
    5127:	48 39 d0             	cmp    %rdx,%rax
    512a:	74 08                	je     5134 <prvTaskTags+0x181>
    512c:	48 c7 45 e8 00 00 00 	movq   $0x0,-0x18(%rbp)
    5133:	00 
    5134:	be 00 00 00 00       	mov    $0x0,%esi
    5139:	bf 00 00 00 00       	mov    $0x0,%edi
    513e:	e8 7c 92 00 00       	callq  e3bf <vTaskSetApplicationTaskTag>
    5143:	bf 00 00 00 00       	mov    $0x0,%edi
    5148:	e8 be 92 00 00       	callq  e40b <xTaskGetApplicationTaskTag>
    514d:	48 85 c0             	test   %rax,%rax
    5150:	74 08                	je     515a <prvTaskTags+0x1a7>
    5152:	48 c7 45 e8 00 00 00 	movq   $0x0,-0x18(%rbp)
    5159:	00 
    515a:	48 8b 45 e8          	mov    -0x18(%rbp),%rax
    515e:	c9                   	leaveq 
    515f:	c3                   	retq   

0000000000005160 <prvTimerQuery>:
    5160:	f3 0f 1e fa          	endbr64 
    5164:	55                   	push   %rbp
    5165:	48 89 e5             	mov    %rsp,%rbp
    5168:	48 83 ec 30          	sub    $0x30,%rsp
    516c:	48 c7 45 d8 01 00 00 	movq   $0x1,-0x28(%rbp)
    5173:	00 
    5174:	48 8d 05 a3 26 02 00 	lea    0x226a3(%rip),%rax        # 2781e <_IO_stdin_used+0x81e>
    517b:	48 89 45 e0          	mov    %rax,-0x20(%rbp)
    517f:	48 c7 45 e8 64 00 00 	movq   $0x64,-0x18(%rbp)
    5186:	00 
    5187:	48 c7 45 f0 37 00 00 	movq   $0x37,-0x10(%rbp)
    518e:	00 
    518f:	48 8b 55 e8          	mov    -0x18(%rbp),%rdx
    5193:	48 8b 75 e8          	mov    -0x18(%rbp),%rsi
    5197:	48 8b 45 e0          	mov    -0x20(%rbp),%rax
    519b:	41 b8 00 00 00 00    	mov    $0x0,%r8d
    51a1:	48 89 d1             	mov    %rdx,%rcx
    51a4:	ba 00 00 00 00       	mov    $0x0,%edx
    51a9:	48 89 c7             	mov    %rax,%rdi
    51ac:	e8 14 c2 00 00       	callq  113c5 <xTimerCreate>
    51b1:	48 89 45 f8          	mov    %rax,-0x8(%rbp)
    51b5:	48 83 7d f8 00       	cmpq   $0x0,-0x8(%rbp)
    51ba:	0f 84 95 00 00 00    	je     5255 <prvTimerQuery+0xf5>
    51c0:	48 8b 45 f8          	mov    -0x8(%rbp),%rax
    51c4:	48 89 c7             	mov    %rax,%rdi
    51c7:	e8 d7 c7 00 00       	callq  119a3 <xTimerGetPeriod>
    51cc:	48 39 45 e8          	cmp    %rax,-0x18(%rbp)
    51d0:	74 08                	je     51da <prvTimerQuery+0x7a>
    51d2:	48 c7 45 d8 00 00 00 	movq   $0x0,-0x28(%rbp)
    51d9:	00 
    51da:	48 8b 45 f8          	mov    -0x8(%rbp),%rax
    51de:	48 89 c7             	mov    %rax,%rdi
    51e1:	e8 0f c9 00 00       	callq  11af5 <pcTimerGetName>
    51e6:	48 89 c2             	mov    %rax,%rdx
    51e9:	48 8b 45 e0          	mov    -0x20(%rbp),%rax
    51ed:	48 89 c6             	mov    %rax,%rsi
    51f0:	48 89 d7             	mov    %rdx,%rdi
    51f3:	e8 58 d3 ff ff       	callq  2550 <strcmp@plt>
    51f8:	85 c0                	test   %eax,%eax
    51fa:	74 08                	je     5204 <prvTimerQuery+0xa4>
    51fc:	48 c7 45 d8 00 00 00 	movq   $0x0,-0x28(%rbp)
    5203:	00 
    5204:	48 8b 55 f0          	mov    -0x10(%rbp),%rdx
    5208:	48 8b 45 f8          	mov    -0x8(%rbp),%rax
    520c:	48 89 d6             	mov    %rdx,%rsi
    520f:	48 89 c7             	mov    %rax,%rdi
    5212:	e8 4a d4 00 00       	callq  12661 <vTimerSetTimerNumber>
    5217:	48 8b 45 f8          	mov    -0x8(%rbp),%rax
    521b:	48 89 c7             	mov    %rax,%rdi
    521e:	e8 28 d4 00 00       	callq  1264b <uxTimerGetTimerNumber>
    5223:	48 39 45 f0          	cmp    %rax,-0x10(%rbp)
    5227:	74 08                	je     5231 <prvTimerQuery+0xd1>
    5229:	48 c7 45 d8 00 00 00 	movq   $0x0,-0x28(%rbp)
    5230:	00 
    5231:	48 8b 45 f8          	mov    -0x8(%rbp),%rax
    5235:	49 c7 c0 ff ff ff ff 	mov    $0xffffffffffffffff,%r8
    523c:	b9 00 00 00 00       	mov    $0x0,%ecx
    5241:	ba 00 00 00 00       	mov    $0x0,%edx
    5246:	be 05 00 00 00       	mov    $0x5,%esi
    524b:	48 89 c7             	mov    %rax,%rdi
    524e:	e8 e2 c3 00 00       	callq  11635 <xTimerGenericCommand>
    5253:	eb 08                	jmp    525d <prvTimerQuery+0xfd>
    5255:	48 c7 45 d8 00 00 00 	movq   $0x0,-0x28(%rbp)
    525c:	00 
    525d:	48 8b 45 d8          	mov    -0x28(%rbp),%rax
    5261:	c9                   	leaveq 
    5262:	c3                   	retq   

0000000000005263 <xRunCodeCoverageTestAdditions>:
    5263:	f3 0f 1e fa          	endbr64 
    5267:	55                   	push   %rbp
    5268:	48 89 e5             	mov    %rsp,%rbp
    526b:	48 83 ec 10          	sub    $0x10,%rsp
    526f:	48 c7 45 f8 01 00 00 	movq   $0x1,-0x8(%rbp)
    5276:	00 
    5277:	e8 25 f4 ff ff       	callq  46a1 <prvStaticAllocationsWithNullBuffers>
    527c:	48 21 45 f8          	and    %rax,-0x8(%rbp)
    5280:	e8 62 f5 ff ff       	callq  47e7 <prvTraceUtils>
    5285:	48 21 45 f8          	and    %rax,-0x8(%rbp)
    5289:	e8 85 f7 ff ff       	callq  4a13 <prvPeekTimeout>
    528e:	48 21 45 f8          	and    %rax,-0x8(%rbp)
    5292:	e8 3d f8 ff ff       	callq  4ad4 <prvQueueQueryFromISR>
    5297:	48 21 45 f8          	and    %rax,-0x8(%rbp)
    529b:	e8 cd f9 ff ff       	callq  4c6d <prvTaskQueryFunctions>
    52a0:	48 21 45 f8          	and    %rax,-0x8(%rbp)
    52a4:	e8 0a fd ff ff       	callq  4fb3 <prvTaskTags>
    52a9:	48 21 45 f8          	and    %rax,-0x8(%rbp)
    52ad:	e8 ae fe ff ff       	callq  5160 <prvTimerQuery>
    52b2:	48 21 45 f8          	and    %rax,-0x8(%rbp)
    52b6:	48 8b 45 f8          	mov    -0x8(%rbp),%rax
    52ba:	c9                   	leaveq 
    52bb:	c3                   	retq   

00000000000052bc <vConfigureTimerForRunTimeStats>:
    52bc:	f3 0f 1e fa          	endbr64 
    52c0:	55                   	push   %rbp
    52c1:	48 89 e5             	mov    %rsp,%rbp
    52c4:	48 83 ec 20          	sub    $0x20,%rsp
    52c8:	64 48 8b 04 25 28 00 	mov    %fs:0x28,%rax
    52cf:	00 00 
    52d1:	48 89 45 f8          	mov    %rax,-0x8(%rbp)
    52d5:	31 c0                	xor    %eax,%eax
    52d7:	48 8d 45 e0          	lea    -0x20(%rbp),%rax
    52db:	48 89 c6             	mov    %rax,%rsi
    52de:	bf 01 00 00 00       	mov    $0x1,%edi
    52e3:	e8 78 d1 ff ff       	callq  2460 <clock_gettime@plt>
    52e8:	48 8b 45 e0          	mov    -0x20(%rbp),%rax
    52ec:	48 69 c0 00 ca 9a 3b 	imul   $0x3b9aca00,%rax,%rax
    52f3:	48 8b 55 e8          	mov    -0x18(%rbp),%rdx
    52f7:	48 01 d0             	add    %rdx,%rax
    52fa:	48 89 05 6f c2 02 00 	mov    %rax,0x2c26f(%rip)        # 31570 <ulStartTimeNs>
    5301:	90                   	nop
    5302:	48 8b 45 f8          	mov    -0x8(%rbp),%rax
    5306:	64 48 33 04 25 28 00 	xor    %fs:0x28,%rax
    530d:	00 00 
    530f:	74 05                	je     5316 <vConfigureTimerForRunTimeStats+0x5a>
    5311:	e8 ba d1 ff ff       	callq  24d0 <__stack_chk_fail@plt>
    5316:	c9                   	leaveq 
    5317:	c3                   	retq   

0000000000005318 <ulGetRunTimeCounterValue>:
    5318:	f3 0f 1e fa          	endbr64 
    531c:	55                   	push   %rbp
    531d:	48 89 e5             	mov    %rsp,%rbp
    5320:	48 83 ec 20          	sub    $0x20,%rsp
    5324:	64 48 8b 04 25 28 00 	mov    %fs:0x28,%rax
    532b:	00 00 
    532d:	48 89 45 f8          	mov    %rax,-0x8(%rbp)
    5331:	31 c0                	xor    %eax,%eax
    5333:	48 8d 45 e0          	lea    -0x20(%rbp),%rax
    5337:	48 89 c6             	mov    %rax,%rsi
    533a:	bf 01 00 00 00       	mov    $0x1,%edi
    533f:	e8 1c d1 ff ff       	callq  2460 <clock_gettime@plt>
    5344:	48 8b 45 e0          	mov    -0x20(%rbp),%rax
    5348:	48 69 c0 00 ca 9a 3b 	imul   $0x3b9aca00,%rax,%rax
    534f:	48 8b 55 e8          	mov    -0x18(%rbp),%rdx
    5353:	48 01 c2             	add    %rax,%rdx
    5356:	48 8b 05 13 c2 02 00 	mov    0x2c213(%rip),%rax        # 31570 <ulStartTimeNs>
    535d:	48 29 c2             	sub    %rax,%rdx
    5360:	48 89 d0             	mov    %rdx,%rax
    5363:	48 8b 4d f8          	mov    -0x8(%rbp),%rcx
    5367:	64 48 33 0c 25 28 00 	xor    %fs:0x28,%rcx
    536e:	00 00 
    5370:	74 05                	je     5377 <ulGetRunTimeCounterValue+0x5f>
    5372:	e8 59 d1 ff ff       	callq  24d0 <__stack_chk_fail@plt>
    5377:	c9                   	leaveq 
    5378:	c3                   	retq   

0000000000005379 <xQueueGenericReset>:
    5379:	f3 0f 1e fa          	endbr64 
    537d:	55                   	push   %rbp
    537e:	48 89 e5             	mov    %rsp,%rbp
    5381:	48 83 ec 20          	sub    $0x20,%rsp
    5385:	48 89 7d e8          	mov    %rdi,-0x18(%rbp)
    5389:	48 89 75 e0          	mov    %rsi,-0x20(%rbp)
    538d:	48 c7 45 f0 01 00 00 	movq   $0x1,-0x10(%rbp)
    5394:	00 
    5395:	48 8b 45 e8          	mov    -0x18(%rbp),%rax
    5399:	48 89 45 f8          	mov    %rax,-0x8(%rbp)
    539d:	48 83 7d f8 00       	cmpq   $0x0,-0x8(%rbp)
    53a2:	75 11                	jne    53b5 <xQueueGenericReset+0x3c>
    53a4:	be 10 01 00 00       	mov    $0x110,%esi
    53a9:	48 8d 3d 78 24 02 00 	lea    0x22478(%rip),%rdi        # 27828 <_IO_stdin_used+0x828>
    53b0:	e8 57 e9 ff ff       	callq  3d0c <vAssertCalled>
    53b5:	48 83 7d f8 00       	cmpq   $0x0,-0x8(%rbp)
    53ba:	0f 84 22 01 00 00    	je     54e2 <xQueueGenericReset+0x169>
    53c0:	48 8b 45 f8          	mov    -0x8(%rbp),%rax
    53c4:	48 8b 40 78          	mov    0x78(%rax),%rax
    53c8:	48 85 c0             	test   %rax,%rax
    53cb:	0f 84 11 01 00 00    	je     54e2 <xQueueGenericReset+0x169>
    53d1:	48 8b 45 f8          	mov    -0x8(%rbp),%rax
    53d5:	48 8b 80 80 00 00 00 	mov    0x80(%rax),%rax
    53dc:	48 8b 55 f8          	mov    -0x8(%rbp),%rdx
    53e0:	48 8b 52 78          	mov    0x78(%rdx),%rdx
    53e4:	b9 00 00 00 00       	mov    $0x0,%ecx
    53e9:	48 f7 e2             	mul    %rdx
    53ec:	71 05                	jno    53f3 <xQueueGenericReset+0x7a>
    53ee:	b9 01 00 00 00       	mov    $0x1,%ecx
    53f3:	48 89 c8             	mov    %rcx,%rax
    53f6:	48 85 c0             	test   %rax,%rax
    53f9:	0f 85 e3 00 00 00    	jne    54e2 <xQueueGenericReset+0x169>
    53ff:	e8 cb d9 00 00       	callq  12dcf <vPortEnterCritical>
    5404:	48 8b 45 f8          	mov    -0x8(%rbp),%rax
    5408:	48 8b 10             	mov    (%rax),%rdx
    540b:	48 8b 45 f8          	mov    -0x8(%rbp),%rax
    540f:	48 8b 48 78          	mov    0x78(%rax),%rcx
    5413:	48 8b 45 f8          	mov    -0x8(%rbp),%rax
    5417:	48 8b 80 80 00 00 00 	mov    0x80(%rax),%rax
    541e:	48 0f af c1          	imul   %rcx,%rax
    5422:	48 01 c2             	add    %rax,%rdx
    5425:	48 8b 45 f8          	mov    -0x8(%rbp),%rax
    5429:	48 89 50 10          	mov    %rdx,0x10(%rax)
    542d:	48 8b 45 f8          	mov    -0x8(%rbp),%rax
    5431:	48 c7 40 70 00 00 00 	movq   $0x0,0x70(%rax)
    5438:	00 
    5439:	48 8b 45 f8          	mov    -0x8(%rbp),%rax
    543d:	48 8b 10             	mov    (%rax),%rdx
    5440:	48 8b 45 f8          	mov    -0x8(%rbp),%rax
    5444:	48 89 50 08          	mov    %rdx,0x8(%rax)
    5448:	48 8b 45 f8          	mov    -0x8(%rbp),%rax
    544c:	48 8b 10             	mov    (%rax),%rdx
    544f:	48 8b 45 f8          	mov    -0x8(%rbp),%rax
    5453:	48 8b 40 78          	mov    0x78(%rax),%rax
    5457:	48 8d 48 ff          	lea    -0x1(%rax),%rcx
    545b:	48 8b 45 f8          	mov    -0x8(%rbp),%rax
    545f:	48 8b 80 80 00 00 00 	mov    0x80(%rax),%rax
    5466:	48 0f af c1          	imul   %rcx,%rax
    546a:	48 01 c2             	add    %rax,%rdx
    546d:	48 8b 45 f8          	mov    -0x8(%rbp),%rax
    5471:	48 89 50 18          	mov    %rdx,0x18(%rax)
    5475:	48 8b 45 f8          	mov    -0x8(%rbp),%rax
    5479:	c6 80 88 00 00 00 ff 	movb   $0xff,0x88(%rax)
    5480:	48 8b 45 f8          	mov    -0x8(%rbp),%rax
    5484:	c6 80 89 00 00 00 ff 	movb   $0xff,0x89(%rax)
    548b:	48 83 7d e0 00       	cmpq   $0x0,-0x20(%rbp)
    5490:	75 29                	jne    54bb <xQueueGenericReset+0x142>
    5492:	48 8b 45 f8          	mov    -0x8(%rbp),%rax
    5496:	48 8b 40 20          	mov    0x20(%rax),%rax
    549a:	48 85 c0             	test   %rax,%rax
    549d:	74 3c                	je     54db <xQueueGenericReset+0x162>
    549f:	48 8b 45 f8          	mov    -0x8(%rbp),%rax
    54a3:	48 83 c0 20          	add    $0x20,%rax
    54a7:	48 89 c7             	mov    %rax,%rdi
    54aa:	e8 bf 94 00 00       	callq  e96e <xTaskRemoveFromEventList>
    54af:	48 85 c0             	test   %rax,%rax
    54b2:	74 27                	je     54db <xQueueGenericReset+0x162>
    54b4:	e8 bb d9 00 00       	callq  12e74 <vPortYield>
    54b9:	eb 20                	jmp    54db <xQueueGenericReset+0x162>
    54bb:	48 8b 45 f8          	mov    -0x8(%rbp),%rax
    54bf:	48 83 c0 20          	add    $0x20,%rax
    54c3:	48 89 c7             	mov    %rax,%rdi
    54c6:	e8 78 37 00 00       	callq  8c43 <vListInitialise>
    54cb:	48 8b 45 f8          	mov    -0x8(%rbp),%rax
    54cf:	48 83 c0 48          	add    $0x48,%rax
    54d3:	48 89 c7             	mov    %rax,%rdi
    54d6:	e8 68 37 00 00       	callq  8c43 <vListInitialise>
    54db:	e8 1d d9 00 00       	callq  12dfd <vPortExitCritical>
    54e0:	eb 08                	jmp    54ea <xQueueGenericReset+0x171>
    54e2:	48 c7 45 f0 00 00 00 	movq   $0x0,-0x10(%rbp)
    54e9:	00 
    54ea:	48 83 7d f0 00       	cmpq   $0x0,-0x10(%rbp)
    54ef:	75 11                	jne    5502 <xQueueGenericReset+0x189>
    54f1:	be 45 01 00 00       	mov    $0x145,%esi
    54f6:	48 8d 3d 2b 23 02 00 	lea    0x2232b(%rip),%rdi        # 27828 <_IO_stdin_used+0x828>
    54fd:	e8 0a e8 ff ff       	callq  3d0c <vAssertCalled>
    5502:	48 8b 45 f0          	mov    -0x10(%rbp),%rax
    5506:	c9                   	leaveq 
    5507:	c3                   	retq   

0000000000005508 <xQueueGenericCreateStatic>:
    5508:	f3 0f 1e fa          	endbr64 
    550c:	55                   	push   %rbp
    550d:	48 89 e5             	mov    %rsp,%rbp
    5510:	48 83 ec 40          	sub    $0x40,%rsp
    5514:	48 89 7d e8          	mov    %rdi,-0x18(%rbp)
    5518:	48 89 75 e0          	mov    %rsi,-0x20(%rbp)
    551c:	48 89 55 d8          	mov    %rdx,-0x28(%rbp)
    5520:	48 89 4d d0          	mov    %rcx,-0x30(%rbp)
    5524:	44 89 c0             	mov    %r8d,%eax
    5527:	88 45 cc             	mov    %al,-0x34(%rbp)
    552a:	48 c7 45 f8 00 00 00 	movq   $0x0,-0x8(%rbp)
    5531:	00 
    5532:	48 83 7d d0 00       	cmpq   $0x0,-0x30(%rbp)
    5537:	75 11                	jne    554a <xQueueGenericCreateStatic+0x42>
    5539:	be 59 01 00 00       	mov    $0x159,%esi
    553e:	48 8d 3d e3 22 02 00 	lea    0x222e3(%rip),%rdi        # 27828 <_IO_stdin_used+0x828>
    5545:	e8 c2 e7 ff ff       	callq  3d0c <vAssertCalled>
    554a:	48 83 7d e8 00       	cmpq   $0x0,-0x18(%rbp)
    554f:	0f 84 80 00 00 00    	je     55d5 <xQueueGenericCreateStatic+0xcd>
    5555:	48 83 7d d0 00       	cmpq   $0x0,-0x30(%rbp)
    555a:	74 79                	je     55d5 <xQueueGenericCreateStatic+0xcd>
    555c:	48 83 7d d8 00       	cmpq   $0x0,-0x28(%rbp)
    5561:	74 07                	je     556a <xQueueGenericCreateStatic+0x62>
    5563:	48 83 7d e0 00       	cmpq   $0x0,-0x20(%rbp)
    5568:	74 6b                	je     55d5 <xQueueGenericCreateStatic+0xcd>
    556a:	48 83 7d d8 00       	cmpq   $0x0,-0x28(%rbp)
    556f:	75 07                	jne    5578 <xQueueGenericCreateStatic+0x70>
    5571:	48 83 7d e0 00       	cmpq   $0x0,-0x20(%rbp)
    5576:	75 5d                	jne    55d5 <xQueueGenericCreateStatic+0xcd>
    5578:	48 c7 45 f0 a8 00 00 	movq   $0xa8,-0x10(%rbp)
    557f:	00 
    5580:	48 8b 45 f0          	mov    -0x10(%rbp),%rax
    5584:	48 3d a8 00 00 00    	cmp    $0xa8,%rax
    558a:	74 11                	je     559d <xQueueGenericCreateStatic+0x95>
    558c:	be 6b 01 00 00       	mov    $0x16b,%esi
    5591:	48 8d 3d 90 22 02 00 	lea    0x22290(%rip),%rdi        # 27828 <_IO_stdin_used+0x828>
    5598:	e8 6f e7 ff ff       	callq  3d0c <vAssertCalled>
    559d:	48 8b 45 f0          	mov    -0x10(%rbp),%rax
    55a1:	48 8b 45 d0          	mov    -0x30(%rbp),%rax
    55a5:	48 89 45 f8          	mov    %rax,-0x8(%rbp)
    55a9:	48 8b 45 f8          	mov    -0x8(%rbp),%rax
    55ad:	c6 80 8a 00 00 00 01 	movb   $0x1,0x8a(%rax)
    55b4:	0f b6 4d cc          	movzbl -0x34(%rbp),%ecx
    55b8:	48 8b 7d f8          	mov    -0x8(%rbp),%rdi
    55bc:	48 8b 55 d8          	mov    -0x28(%rbp),%rdx
    55c0:	48 8b 75 e0          	mov    -0x20(%rbp),%rsi
    55c4:	48 8b 45 e8          	mov    -0x18(%rbp),%rax
    55c8:	49 89 f8             	mov    %rdi,%r8
    55cb:	48 89 c7             	mov    %rax,%rdi
    55ce:	e8 48 01 00 00       	callq  571b <prvInitialiseNewQueue>
    55d3:	eb 18                	jmp    55ed <xQueueGenericCreateStatic+0xe5>
    55d5:	48 83 7d f8 00       	cmpq   $0x0,-0x8(%rbp)
    55da:	75 11                	jne    55ed <xQueueGenericCreateStatic+0xe5>
    55dc:	be 82 01 00 00       	mov    $0x182,%esi
    55e1:	48 8d 3d 40 22 02 00 	lea    0x22240(%rip),%rdi        # 27828 <_IO_stdin_used+0x828>
    55e8:	e8 1f e7 ff ff       	callq  3d0c <vAssertCalled>
    55ed:	48 8b 45 f8          	mov    -0x8(%rbp),%rax
    55f1:	c9                   	leaveq 
    55f2:	c3                   	retq   

00000000000055f3 <xQueueGenericCreate>:
    55f3:	f3 0f 1e fa          	endbr64 
    55f7:	55                   	push   %rbp
    55f8:	48 89 e5             	mov    %rsp,%rbp
    55fb:	48 83 ec 40          	sub    $0x40,%rsp
    55ff:	48 89 7d d8          	mov    %rdi,-0x28(%rbp)
    5603:	48 89 75 d0          	mov    %rsi,-0x30(%rbp)
    5607:	89 d0                	mov    %edx,%eax
    5609:	88 45 cc             	mov    %al,-0x34(%rbp)
    560c:	48 c7 45 e8 00 00 00 	movq   $0x0,-0x18(%rbp)
    5613:	00 
    5614:	48 83 7d d8 00       	cmpq   $0x0,-0x28(%rbp)
    5619:	0f 84 db 00 00 00    	je     56fa <xQueueGenericCreate+0x107>
    561f:	b9 00 00 00 00       	mov    $0x0,%ecx
    5624:	48 8b 45 d0          	mov    -0x30(%rbp),%rax
    5628:	48 f7 65 d8          	mulq   -0x28(%rbp)
    562c:	71 05                	jno    5633 <xQueueGenericCreate+0x40>
    562e:	b9 01 00 00 00       	mov    $0x1,%ecx
    5633:	48 89 c8             	mov    %rcx,%rax
    5636:	48 85 c0             	test   %rax,%rax
    5639:	0f 85 bb 00 00 00    	jne    56fa <xQueueGenericCreate+0x107>
    563f:	48 8b 45 d8          	mov    -0x28(%rbp),%rax
    5643:	48 0f af 45 d0       	imul   -0x30(%rbp),%rax
    5648:	48 3d 57 ff ff ff    	cmp    $0xffffffffffffff57,%rax
    564e:	0f 87 a6 00 00 00    	ja     56fa <xQueueGenericCreate+0x107>
    5654:	48 8b 45 d8          	mov    -0x28(%rbp),%rax
    5658:	48 0f af 45 d0       	imul   -0x30(%rbp),%rax
    565d:	48 89 45 f0          	mov    %rax,-0x10(%rbp)
    5661:	48 8b 45 f0          	mov    -0x10(%rbp),%rax
    5665:	48 05 a8 00 00 00    	add    $0xa8,%rax
    566b:	48 89 c7             	mov    %rax,%rdi
    566e:	e8 0d d0 00 00       	callq  12680 <pvPortMalloc>
    5673:	48 89 45 e8          	mov    %rax,-0x18(%rbp)
    5677:	48 83 7d e8 00       	cmpq   $0x0,-0x18(%rbp)
    567c:	74 3c                	je     56ba <xQueueGenericCreate+0xc7>
    567e:	48 8b 45 e8          	mov    -0x18(%rbp),%rax
    5682:	48 89 45 f8          	mov    %rax,-0x8(%rbp)
    5686:	48 81 45 f8 a8 00 00 	addq   $0xa8,-0x8(%rbp)
    568d:	00 
    568e:	48 8b 45 e8          	mov    -0x18(%rbp),%rax
    5692:	c6 80 8a 00 00 00 00 	movb   $0x0,0x8a(%rax)
    5699:	0f b6 4d cc          	movzbl -0x34(%rbp),%ecx
    569d:	48 8b 7d e8          	mov    -0x18(%rbp),%rdi
    56a1:	48 8b 55 f8          	mov    -0x8(%rbp),%rdx
    56a5:	48 8b 75 d0          	mov    -0x30(%rbp),%rsi
    56a9:	48 8b 45 d8          	mov    -0x28(%rbp),%rax
    56ad:	49 89 f8             	mov    %rdi,%r8
    56b0:	48 89 c7             	mov    %rax,%rdi
    56b3:	e8 63 00 00 00       	callq  571b <prvInitialiseNewQueue>
    56b8:	eb 5a                	jmp    5714 <xQueueGenericCreate+0x121>
    56ba:	e8 9d df 01 00       	callq  2365c <prvTraceGetCurrentTaskHandle>
    56bf:	48 89 c7             	mov    %rax,%rdi
    56c2:	e8 94 da 01 00       	callq  2315b <prvTraceGetTaskNumberHigh16>
    56c7:	0f b7 15 0e ba 02 00 	movzwl 0x2ba0e(%rip),%edx        # 310dc <CurrentFilterMask>
    56ce:	21 d0                	and    %edx,%eax
    56d0:	66 85 c0             	test   %ax,%ax
    56d3:	74 3f                	je     5714 <xQueueGenericCreate+0x121>
    56d5:	0f b6 45 cc          	movzbl -0x34(%rbp),%eax
    56d9:	48 98                	cltq   
    56db:	48 8d 15 ee b9 02 00 	lea    0x2b9ee(%rip),%rdx        # 310d0 <TraceQueueClassTable>
    56e2:	0f b6 04 10          	movzbl (%rax,%rdx,1),%eax
    56e6:	83 c0 40             	add    $0x40,%eax
    56e9:	0f b6 c0             	movzbl %al,%eax
    56ec:	be 00 00 00 00       	mov    $0x0,%esi
    56f1:	89 c7                	mov    %eax,%edi
    56f3:	e8 46 fc 01 00       	callq  2533e <prvTraceStoreKernelCallWithNumericParamOnly>
    56f8:	eb 1a                	jmp    5714 <xQueueGenericCreate+0x121>
    56fa:	48 83 7d e8 00       	cmpq   $0x0,-0x18(%rbp)
    56ff:	75 14                	jne    5715 <xQueueGenericCreate+0x122>
    5701:	be c6 01 00 00       	mov    $0x1c6,%esi
    5706:	48 8d 3d 1b 21 02 00 	lea    0x2211b(%rip),%rdi        # 27828 <_IO_stdin_used+0x828>
    570d:	e8 fa e5 ff ff       	callq  3d0c <vAssertCalled>
    5712:	eb 01                	jmp    5715 <xQueueGenericCreate+0x122>
    5714:	90                   	nop
    5715:	48 8b 45 e8          	mov    -0x18(%rbp),%rax
    5719:	c9                   	leaveq 
    571a:	c3                   	retq   

000000000000571b <prvInitialiseNewQueue>:
    571b:	f3 0f 1e fa          	endbr64 
    571f:	55                   	push   %rbp
    5720:	48 89 e5             	mov    %rsp,%rbp
    5723:	41 54                	push   %r12
    5725:	53                   	push   %rbx
    5726:	48 83 ec 30          	sub    $0x30,%rsp
    572a:	48 89 7d e8          	mov    %rdi,-0x18(%rbp)
    572e:	48 89 75 e0          	mov    %rsi,-0x20(%rbp)
    5732:	48 89 55 d8          	mov    %rdx,-0x28(%rbp)
    5736:	89 c8                	mov    %ecx,%eax
    5738:	4c 89 45 c8          	mov    %r8,-0x38(%rbp)
    573c:	88 45 d4             	mov    %al,-0x2c(%rbp)
    573f:	48 83 7d e0 00       	cmpq   $0x0,-0x20(%rbp)
    5744:	75 0d                	jne    5753 <prvInitialiseNewQueue+0x38>
    5746:	48 8b 45 c8          	mov    -0x38(%rbp),%rax
    574a:	48 8b 55 c8          	mov    -0x38(%rbp),%rdx
    574e:	48 89 10             	mov    %rdx,(%rax)
    5751:	eb 0b                	jmp    575e <prvInitialiseNewQueue+0x43>
    5753:	48 8b 45 c8          	mov    -0x38(%rbp),%rax
    5757:	48 8b 55 d8          	mov    -0x28(%rbp),%rdx
    575b:	48 89 10             	mov    %rdx,(%rax)
    575e:	48 8b 45 c8          	mov    -0x38(%rbp),%rax
    5762:	48 8b 55 e8          	mov    -0x18(%rbp),%rdx
    5766:	48 89 50 78          	mov    %rdx,0x78(%rax)
    576a:	48 8b 45 c8          	mov    -0x38(%rbp),%rax
    576e:	48 8b 55 e0          	mov    -0x20(%rbp),%rdx
    5772:	48 89 90 80 00 00 00 	mov    %rdx,0x80(%rax)
    5779:	48 8b 45 c8          	mov    -0x38(%rbp),%rax
    577d:	be 01 00 00 00       	mov    $0x1,%esi
    5782:	48 89 c7             	mov    %rax,%rdi
    5785:	e8 ef fb ff ff       	callq  5379 <xQueueGenericReset>
    578a:	48 8b 45 c8          	mov    -0x38(%rbp),%rax
    578e:	0f b6 55 d4          	movzbl -0x2c(%rbp),%edx
    5792:	88 90 a0 00 00 00    	mov    %dl,0xa0(%rax)
    5798:	48 8b 45 c8          	mov    -0x38(%rbp),%rax
    579c:	48 c7 80 90 00 00 00 	movq   $0x0,0x90(%rax)
    57a3:	00 00 00 00 
    57a7:	48 8b 45 c8          	mov    -0x38(%rbp),%rax
    57ab:	48 89 c7             	mov    %rax,%rdi
    57ae:	e8 6c d9 01 00       	callq  2311f <prvTraceGetQueueType>
    57b3:	0f b6 c0             	movzbl %al,%eax
    57b6:	48 98                	cltq   
    57b8:	48 8d 15 11 b9 02 00 	lea    0x2b911(%rip),%rdx        # 310d0 <TraceQueueClassTable>
    57bf:	0f b6 04 10          	movzbl (%rax,%rdx,1),%eax
    57c3:	0f b6 c0             	movzbl %al,%eax
    57c6:	89 c7                	mov    %eax,%edi
    57c8:	e8 56 06 02 00       	callq  25e23 <prvTraceGetObjectHandle>
    57cd:	0f b6 d0             	movzbl %al,%edx
    57d0:	48 8b 45 c8          	mov    -0x38(%rbp),%rax
    57d4:	89 d6                	mov    %edx,%esi
    57d6:	48 89 c7             	mov    %rax,%rdi
    57d9:	e8 64 da 01 00       	callq  23242 <prvTraceSetQueueNumberLow16>
    57de:	0f b7 05 f9 b8 02 00 	movzwl 0x2b8f9(%rip),%eax        # 310de <CurrentFilterGroup>
    57e5:	0f b7 d0             	movzwl %ax,%edx
    57e8:	48 8b 45 c8          	mov    -0x38(%rbp),%rax
    57ec:	89 d6                	mov    %edx,%esi
    57ee:	48 89 c7             	mov    %rax,%rdi
    57f1:	e8 8e da 01 00       	callq  23284 <prvTraceSetQueueNumberHigh16>
    57f6:	48 8b 45 c8          	mov    -0x38(%rbp),%rax
    57fa:	48 89 c7             	mov    %rax,%rdi
    57fd:	e8 01 da 01 00       	callq  23203 <prvTraceGetQueueNumberLow16>
    5802:	0f b6 d8             	movzbl %al,%ebx
    5805:	48 8b 45 c8          	mov    -0x38(%rbp),%rax
    5809:	48 89 c7             	mov    %rax,%rdi
    580c:	e8 0e d9 01 00       	callq  2311f <prvTraceGetQueueType>
    5811:	0f b6 c0             	movzbl %al,%eax
    5814:	48 98                	cltq   
    5816:	48 8d 15 b3 b8 02 00 	lea    0x2b8b3(%rip),%rdx        # 310d0 <TraceQueueClassTable>
    581d:	0f b6 04 10          	movzbl (%rax,%rdx,1),%eax
    5821:	0f b6 c0             	movzbl %al,%eax
    5824:	89 de                	mov    %ebx,%esi
    5826:	89 c7                	mov    %eax,%edi
    5828:	e8 e3 08 02 00       	callq  26110 <prvMarkObjectAsUsed>
    582d:	e8 2a de 01 00       	callq  2365c <prvTraceGetCurrentTaskHandle>
    5832:	48 89 c7             	mov    %rax,%rdi
    5835:	e8 21 d9 01 00       	callq  2315b <prvTraceGetTaskNumberHigh16>
    583a:	0f b7 15 9b b8 02 00 	movzwl 0x2b89b(%rip),%edx        # 310dc <CurrentFilterMask>
    5841:	21 d0                	and    %edx,%eax
    5843:	66 85 c0             	test   %ax,%ax
    5846:	74 77                	je     58bf <prvInitialiseNewQueue+0x1a4>
    5848:	48 8b 45 c8          	mov    -0x38(%rbp),%rax
    584c:	48 89 c7             	mov    %rax,%rdi
    584f:	e8 cd d9 01 00       	callq  23221 <prvTraceGetQueueNumberHigh16>
    5854:	0f b7 15 81 b8 02 00 	movzwl 0x2b881(%rip),%edx        # 310dc <CurrentFilterMask>
    585b:	21 d0                	and    %edx,%eax
    585d:	66 85 c0             	test   %ax,%ax
    5860:	74 5d                	je     58bf <prvInitialiseNewQueue+0x1a4>
    5862:	48 8b 45 c8          	mov    -0x38(%rbp),%rax
    5866:	48 89 c7             	mov    %rax,%rdi
    5869:	e8 95 d9 01 00       	callq  23203 <prvTraceGetQueueNumberLow16>
    586e:	44 0f b6 e0          	movzbl %al,%r12d
    5872:	48 8b 45 c8          	mov    -0x38(%rbp),%rax
    5876:	48 89 c7             	mov    %rax,%rdi
    5879:	e8 a1 d8 01 00       	callq  2311f <prvTraceGetQueueType>
    587e:	0f b6 c0             	movzbl %al,%eax
    5881:	48 98                	cltq   
    5883:	48 8d 15 46 b8 02 00 	lea    0x2b846(%rip),%rdx        # 310d0 <TraceQueueClassTable>
    588a:	0f b6 04 10          	movzbl (%rax,%rdx,1),%eax
    588e:	0f b6 d8             	movzbl %al,%ebx
    5891:	48 8b 45 c8          	mov    -0x38(%rbp),%rax
    5895:	48 89 c7             	mov    %rax,%rdi
    5898:	e8 82 d8 01 00       	callq  2311f <prvTraceGetQueueType>
    589d:	0f b6 c0             	movzbl %al,%eax
    58a0:	48 98                	cltq   
    58a2:	48 8d 15 27 b8 02 00 	lea    0x2b827(%rip),%rdx        # 310d0 <TraceQueueClassTable>
    58a9:	0f b6 04 10          	movzbl (%rax,%rdx,1),%eax
    58ad:	83 c0 18             	add    $0x18,%eax
    58b0:	0f b6 c0             	movzbl %al,%eax
    58b3:	44 89 e2             	mov    %r12d,%edx
    58b6:	89 de                	mov    %ebx,%esi
    58b8:	89 c7                	mov    %eax,%edi
    58ba:	e8 93 f7 01 00       	callq  25052 <prvTraceStoreKernelCall>
    58bf:	48 8b 45 c8          	mov    -0x38(%rbp),%rax
    58c3:	48 89 c7             	mov    %rax,%rdi
    58c6:	e8 38 d9 01 00       	callq  23203 <prvTraceGetQueueNumberLow16>
    58cb:	0f b6 d8             	movzbl %al,%ebx
    58ce:	48 8b 45 c8          	mov    -0x38(%rbp),%rax
    58d2:	48 89 c7             	mov    %rax,%rdi
    58d5:	e8 45 d8 01 00       	callq  2311f <prvTraceGetQueueType>
    58da:	0f b6 c0             	movzbl %al,%eax
    58dd:	48 98                	cltq   
    58df:	48 8d 15 ea b7 02 00 	lea    0x2b7ea(%rip),%rdx        # 310d0 <TraceQueueClassTable>
    58e6:	0f b6 04 10          	movzbl (%rax,%rdx,1),%eax
    58ea:	0f b6 c0             	movzbl %al,%eax
    58ed:	ba 00 00 00 00       	mov    $0x0,%edx
    58f2:	89 de                	mov    %ebx,%esi
    58f4:	89 c7                	mov    %eax,%edi
    58f6:	e8 91 ff 01 00       	callq  2588c <prvTraceSetObjectState>
    58fb:	90                   	nop
    58fc:	48 83 c4 30          	add    $0x30,%rsp
    5900:	5b                   	pop    %rbx
    5901:	41 5c                	pop    %r12
    5903:	5d                   	pop    %rbp
    5904:	c3                   	retq   

0000000000005905 <prvInitialiseMutex>:
    5905:	f3 0f 1e fa          	endbr64 
    5909:	55                   	push   %rbp
    590a:	48 89 e5             	mov    %rsp,%rbp
    590d:	48 83 ec 10          	sub    $0x10,%rsp
    5911:	48 89 7d f8          	mov    %rdi,-0x8(%rbp)
    5915:	48 83 7d f8 00       	cmpq   $0x0,-0x8(%rbp)
    591a:	74 3e                	je     595a <prvInitialiseMutex+0x55>
    591c:	48 8b 45 f8          	mov    -0x8(%rbp),%rax
    5920:	48 c7 40 10 00 00 00 	movq   $0x0,0x10(%rax)
    5927:	00 
    5928:	48 8b 45 f8          	mov    -0x8(%rbp),%rax
    592c:	48 c7 00 00 00 00 00 	movq   $0x0,(%rax)
    5933:	48 8b 45 f8          	mov    -0x8(%rbp),%rax
    5937:	48 c7 40 18 00 00 00 	movq   $0x0,0x18(%rax)
    593e:	00 
    593f:	48 8b 45 f8          	mov    -0x8(%rbp),%rax
    5943:	b9 00 00 00 00       	mov    $0x0,%ecx
    5948:	ba 00 00 00 00       	mov    $0x0,%edx
    594d:	be 00 00 00 00       	mov    $0x0,%esi
    5952:	48 89 c7             	mov    %rax,%rdi
    5955:	e8 3d 04 00 00       	callq  5d97 <xQueueGenericSend>
    595a:	90                   	nop
    595b:	c9                   	leaveq 
    595c:	c3                   	retq   

000000000000595d <xQueueCreateMutex>:
    595d:	f3 0f 1e fa          	endbr64 
    5961:	55                   	push   %rbp
    5962:	48 89 e5             	mov    %rsp,%rbp
    5965:	48 83 ec 30          	sub    $0x30,%rsp
    5969:	89 f8                	mov    %edi,%eax
    596b:	88 45 dc             	mov    %al,-0x24(%rbp)
    596e:	48 c7 45 e8 01 00 00 	movq   $0x1,-0x18(%rbp)
    5975:	00 
    5976:	48 c7 45 f0 00 00 00 	movq   $0x0,-0x10(%rbp)
    597d:	00 
    597e:	0f b6 55 dc          	movzbl -0x24(%rbp),%edx
    5982:	48 8b 4d f0          	mov    -0x10(%rbp),%rcx
    5986:	48 8b 45 e8          	mov    -0x18(%rbp),%rax
    598a:	48 89 ce             	mov    %rcx,%rsi
    598d:	48 89 c7             	mov    %rax,%rdi
    5990:	e8 5e fc ff ff       	callq  55f3 <xQueueGenericCreate>
    5995:	48 89 45 f8          	mov    %rax,-0x8(%rbp)
    5999:	48 8b 45 f8          	mov    -0x8(%rbp),%rax
    599d:	48 89 c7             	mov    %rax,%rdi
    59a0:	e8 60 ff ff ff       	callq  5905 <prvInitialiseMutex>
    59a5:	48 8b 45 f8          	mov    -0x8(%rbp),%rax
    59a9:	c9                   	leaveq 
    59aa:	c3                   	retq   

00000000000059ab <xQueueCreateMutexStatic>:
    59ab:	f3 0f 1e fa          	endbr64 
    59af:	55                   	push   %rbp
    59b0:	48 89 e5             	mov    %rsp,%rbp
    59b3:	48 83 ec 30          	sub    $0x30,%rsp
    59b7:	89 f8                	mov    %edi,%eax
    59b9:	48 89 75 d0          	mov    %rsi,-0x30(%rbp)
    59bd:	88 45 dc             	mov    %al,-0x24(%rbp)
    59c0:	48 c7 45 e8 01 00 00 	movq   $0x1,-0x18(%rbp)
    59c7:	00 
    59c8:	48 c7 45 f0 00 00 00 	movq   $0x0,-0x10(%rbp)
    59cf:	00 
    59d0:	0f b6 4d dc          	movzbl -0x24(%rbp),%ecx
    59d4:	48 8b 55 d0          	mov    -0x30(%rbp),%rdx
    59d8:	48 8b 75 f0          	mov    -0x10(%rbp),%rsi
    59dc:	48 8b 45 e8          	mov    -0x18(%rbp),%rax
    59e0:	41 89 c8             	mov    %ecx,%r8d
    59e3:	48 89 d1             	mov    %rdx,%rcx
    59e6:	ba 00 00 00 00       	mov    $0x0,%edx
    59eb:	48 89 c7             	mov    %rax,%rdi
    59ee:	e8 15 fb ff ff       	callq  5508 <xQueueGenericCreateStatic>
    59f3:	48 89 45 f8          	mov    %rax,-0x8(%rbp)
    59f7:	48 8b 45 f8          	mov    -0x8(%rbp),%rax
    59fb:	48 89 c7             	mov    %rax,%rdi
    59fe:	e8 02 ff ff ff       	callq  5905 <prvInitialiseMutex>
    5a03:	48 8b 45 f8          	mov    -0x8(%rbp),%rax
    5a07:	c9                   	leaveq 
    5a08:	c3                   	retq   

0000000000005a09 <xQueueGetMutexHolder>:
    5a09:	f3 0f 1e fa          	endbr64 
    5a0d:	55                   	push   %rbp
    5a0e:	48 89 e5             	mov    %rsp,%rbp
    5a11:	48 83 ec 20          	sub    $0x20,%rsp
    5a15:	48 89 7d e8          	mov    %rdi,-0x18(%rbp)
    5a19:	48 8b 45 e8          	mov    -0x18(%rbp),%rax
    5a1d:	48 89 45 f8          	mov    %rax,-0x8(%rbp)
    5a21:	48 83 7d e8 00       	cmpq   $0x0,-0x18(%rbp)
    5a26:	75 11                	jne    5a39 <xQueueGetMutexHolder+0x30>
    5a28:	be 48 02 00 00       	mov    $0x248,%esi
    5a2d:	48 8d 3d f4 1d 02 00 	lea    0x21df4(%rip),%rdi        # 27828 <_IO_stdin_used+0x828>
    5a34:	e8 d3 e2 ff ff       	callq  3d0c <vAssertCalled>
    5a39:	e8 91 d3 00 00       	callq  12dcf <vPortEnterCritical>
    5a3e:	48 8b 45 f8          	mov    -0x8(%rbp),%rax
    5a42:	48 8b 00             	mov    (%rax),%rax
    5a45:	48 85 c0             	test   %rax,%rax
    5a48:	75 0e                	jne    5a58 <xQueueGetMutexHolder+0x4f>
    5a4a:	48 8b 45 f8          	mov    -0x8(%rbp),%rax
    5a4e:	48 8b 40 10          	mov    0x10(%rax),%rax
    5a52:	48 89 45 f0          	mov    %rax,-0x10(%rbp)
    5a56:	eb 08                	jmp    5a60 <xQueueGetMutexHolder+0x57>
    5a58:	48 c7 45 f0 00 00 00 	movq   $0x0,-0x10(%rbp)
    5a5f:	00 
    5a60:	e8 98 d3 00 00       	callq  12dfd <vPortExitCritical>
    5a65:	48 8b 45 f0          	mov    -0x10(%rbp),%rax
    5a69:	c9                   	leaveq 
    5a6a:	c3                   	retq   

0000000000005a6b <xQueueGetMutexHolderFromISR>:
    5a6b:	f3 0f 1e fa          	endbr64 
    5a6f:	55                   	push   %rbp
    5a70:	48 89 e5             	mov    %rsp,%rbp
    5a73:	48 83 ec 20          	sub    $0x20,%rsp
    5a77:	48 89 7d e8          	mov    %rdi,-0x18(%rbp)
    5a7b:	48 83 7d e8 00       	cmpq   $0x0,-0x18(%rbp)
    5a80:	75 11                	jne    5a93 <xQueueGetMutexHolderFromISR+0x28>
    5a82:	be 68 02 00 00       	mov    $0x268,%esi
    5a87:	48 8d 3d 9a 1d 02 00 	lea    0x21d9a(%rip),%rdi        # 27828 <_IO_stdin_used+0x828>
    5a8e:	e8 79 e2 ff ff       	callq  3d0c <vAssertCalled>
    5a93:	48 8b 45 e8          	mov    -0x18(%rbp),%rax
    5a97:	48 8b 00             	mov    (%rax),%rax
    5a9a:	48 85 c0             	test   %rax,%rax
    5a9d:	75 0e                	jne    5aad <xQueueGetMutexHolderFromISR+0x42>
    5a9f:	48 8b 45 e8          	mov    -0x18(%rbp),%rax
    5aa3:	48 8b 40 10          	mov    0x10(%rax),%rax
    5aa7:	48 89 45 f8          	mov    %rax,-0x8(%rbp)
    5aab:	eb 08                	jmp    5ab5 <xQueueGetMutexHolderFromISR+0x4a>
    5aad:	48 c7 45 f8 00 00 00 	movq   $0x0,-0x8(%rbp)
    5ab4:	00 
    5ab5:	48 8b 45 f8          	mov    -0x8(%rbp),%rax
    5ab9:	c9                   	leaveq 
    5aba:	c3                   	retq   

0000000000005abb <xQueueGiveMutexRecursive>:
    5abb:	f3 0f 1e fa          	endbr64 
    5abf:	55                   	push   %rbp
    5ac0:	48 89 e5             	mov    %rsp,%rbp
    5ac3:	41 54                	push   %r12
    5ac5:	53                   	push   %rbx
    5ac6:	48 83 ec 20          	sub    $0x20,%rsp
    5aca:	48 89 7d d8          	mov    %rdi,-0x28(%rbp)
    5ace:	48 8b 45 d8          	mov    -0x28(%rbp),%rax
    5ad2:	48 89 45 e8          	mov    %rax,-0x18(%rbp)
    5ad6:	48 83 7d e8 00       	cmpq   $0x0,-0x18(%rbp)
    5adb:	75 11                	jne    5aee <xQueueGiveMutexRecursive+0x33>
    5add:	be 83 02 00 00       	mov    $0x283,%esi
    5ae2:	48 8d 3d 3f 1d 02 00 	lea    0x21d3f(%rip),%rdi        # 27828 <_IO_stdin_used+0x828>
    5ae9:	e8 1e e2 ff ff       	callq  3d0c <vAssertCalled>
    5aee:	48 8b 45 e8          	mov    -0x18(%rbp),%rax
    5af2:	48 8b 58 10          	mov    0x10(%rax),%rbx
    5af6:	e8 83 9b 00 00       	callq  f67e <xTaskGetCurrentTaskHandle>
    5afb:	48 39 c3             	cmp    %rax,%rbx
    5afe:	75 49                	jne    5b49 <xQueueGiveMutexRecursive+0x8e>
    5b00:	48 8b 45 e8          	mov    -0x18(%rbp),%rax
    5b04:	48 8b 40 18          	mov    0x18(%rax),%rax
    5b08:	48 8d 50 ff          	lea    -0x1(%rax),%rdx
    5b0c:	48 8b 45 e8          	mov    -0x18(%rbp),%rax
    5b10:	48 89 50 18          	mov    %rdx,0x18(%rax)
    5b14:	48 8b 45 e8          	mov    -0x18(%rbp),%rax
    5b18:	48 8b 40 18          	mov    0x18(%rax),%rax
    5b1c:	48 85 c0             	test   %rax,%rax
    5b1f:	75 1b                	jne    5b3c <xQueueGiveMutexRecursive+0x81>
    5b21:	48 8b 45 e8          	mov    -0x18(%rbp),%rax
    5b25:	b9 00 00 00 00       	mov    $0x0,%ecx
    5b2a:	ba 00 00 00 00       	mov    $0x0,%edx
    5b2f:	be 00 00 00 00       	mov    $0x0,%esi
    5b34:	48 89 c7             	mov    %rax,%rdi
    5b37:	e8 5b 02 00 00       	callq  5d97 <xQueueGenericSend>
    5b3c:	48 c7 45 e0 01 00 00 	movq   $0x1,-0x20(%rbp)
    5b43:	00 
    5b44:	e9 9a 00 00 00       	jmpq   5be3 <xQueueGiveMutexRecursive+0x128>
    5b49:	48 c7 45 e0 00 00 00 	movq   $0x0,-0x20(%rbp)
    5b50:	00 
    5b51:	e8 06 db 01 00       	callq  2365c <prvTraceGetCurrentTaskHandle>
    5b56:	48 89 c7             	mov    %rax,%rdi
    5b59:	e8 fd d5 01 00       	callq  2315b <prvTraceGetTaskNumberHigh16>
    5b5e:	0f b7 15 77 b5 02 00 	movzwl 0x2b577(%rip),%edx        # 310dc <CurrentFilterMask>
    5b65:	21 d0                	and    %edx,%eax
    5b67:	66 85 c0             	test   %ax,%ax
    5b6a:	74 77                	je     5be3 <xQueueGiveMutexRecursive+0x128>
    5b6c:	48 8b 45 e8          	mov    -0x18(%rbp),%rax
    5b70:	48 89 c7             	mov    %rax,%rdi
    5b73:	e8 a9 d6 01 00       	callq  23221 <prvTraceGetQueueNumberHigh16>
    5b78:	0f b7 15 5d b5 02 00 	movzwl 0x2b55d(%rip),%edx        # 310dc <CurrentFilterMask>
    5b7f:	21 d0                	and    %edx,%eax
    5b81:	66 85 c0             	test   %ax,%ax
    5b84:	74 5d                	je     5be3 <xQueueGiveMutexRecursive+0x128>
    5b86:	48 8b 45 e8          	mov    -0x18(%rbp),%rax
    5b8a:	48 89 c7             	mov    %rax,%rdi
    5b8d:	e8 71 d6 01 00       	callq  23203 <prvTraceGetQueueNumberLow16>
    5b92:	44 0f b6 e0          	movzbl %al,%r12d
    5b96:	48 8b 45 e8          	mov    -0x18(%rbp),%rax
    5b9a:	48 89 c7             	mov    %rax,%rdi
    5b9d:	e8 7d d5 01 00       	callq  2311f <prvTraceGetQueueType>
    5ba2:	0f b6 c0             	movzbl %al,%eax
    5ba5:	48 98                	cltq   
    5ba7:	48 8d 15 22 b5 02 00 	lea    0x2b522(%rip),%rdx        # 310d0 <TraceQueueClassTable>
    5bae:	0f b6 04 10          	movzbl (%rax,%rdx,1),%eax
    5bb2:	0f b6 d8             	movzbl %al,%ebx
    5bb5:	48 8b 45 e8          	mov    -0x18(%rbp),%rax
    5bb9:	48 89 c7             	mov    %rax,%rdi
    5bbc:	e8 5e d5 01 00       	callq  2311f <prvTraceGetQueueType>
    5bc1:	0f b6 c0             	movzbl %al,%eax
    5bc4:	48 98                	cltq   
    5bc6:	48 8d 15 03 b5 02 00 	lea    0x2b503(%rip),%rdx        # 310d0 <TraceQueueClassTable>
    5bcd:	0f b6 04 10          	movzbl (%rax,%rdx,1),%eax
    5bd1:	83 c0 48             	add    $0x48,%eax
    5bd4:	0f b6 c0             	movzbl %al,%eax
    5bd7:	44 89 e2             	mov    %r12d,%edx
    5bda:	89 de                	mov    %ebx,%esi
    5bdc:	89 c7                	mov    %eax,%edi
    5bde:	e8 6f f4 01 00       	callq  25052 <prvTraceStoreKernelCall>
    5be3:	48 8b 45 e0          	mov    -0x20(%rbp),%rax
    5be7:	48 83 c4 20          	add    $0x20,%rsp
    5beb:	5b                   	pop    %rbx
    5bec:	41 5c                	pop    %r12
    5bee:	5d                   	pop    %rbp
    5bef:	c3                   	retq   

0000000000005bf0 <xQueueTakeMutexRecursive>:
    5bf0:	f3 0f 1e fa          	endbr64 
    5bf4:	55                   	push   %rbp
    5bf5:	48 89 e5             	mov    %rsp,%rbp
    5bf8:	53                   	push   %rbx
    5bf9:	48 83 ec 28          	sub    $0x28,%rsp
    5bfd:	48 89 7d d8          	mov    %rdi,-0x28(%rbp)
    5c01:	48 89 75 d0          	mov    %rsi,-0x30(%rbp)
    5c05:	48 8b 45 d8          	mov    -0x28(%rbp),%rax
    5c09:	48 89 45 e8          	mov    %rax,-0x18(%rbp)
    5c0d:	48 83 7d e8 00       	cmpq   $0x0,-0x18(%rbp)
    5c12:	75 11                	jne    5c25 <xQueueTakeMutexRecursive+0x35>
    5c14:	be bb 02 00 00       	mov    $0x2bb,%esi
    5c19:	48 8d 3d 08 1c 02 00 	lea    0x21c08(%rip),%rdi        # 27828 <_IO_stdin_used+0x828>
    5c20:	e8 e7 e0 ff ff       	callq  3d0c <vAssertCalled>
    5c25:	48 8b 45 e8          	mov    -0x18(%rbp),%rax
    5c29:	48 8b 58 10          	mov    0x10(%rax),%rbx
    5c2d:	e8 4c 9a 00 00       	callq  f67e <xTaskGetCurrentTaskHandle>
    5c32:	48 39 c3             	cmp    %rax,%rbx
    5c35:	75 1e                	jne    5c55 <xQueueTakeMutexRecursive+0x65>
    5c37:	48 8b 45 e8          	mov    -0x18(%rbp),%rax
    5c3b:	48 8b 40 18          	mov    0x18(%rax),%rax
    5c3f:	48 8d 50 01          	lea    0x1(%rax),%rdx
    5c43:	48 8b 45 e8          	mov    -0x18(%rbp),%rax
    5c47:	48 89 50 18          	mov    %rdx,0x18(%rax)
    5c4b:	48 c7 45 e0 01 00 00 	movq   $0x1,-0x20(%rbp)
    5c52:	00 
    5c53:	eb 32                	jmp    5c87 <xQueueTakeMutexRecursive+0x97>
    5c55:	48 8b 55 d0          	mov    -0x30(%rbp),%rdx
    5c59:	48 8b 45 e8          	mov    -0x18(%rbp),%rax
    5c5d:	48 89 d6             	mov    %rdx,%rsi
    5c60:	48 89 c7             	mov    %rax,%rdi
    5c63:	e8 0c 13 00 00       	callq  6f74 <xQueueSemaphoreTake>
    5c68:	48 89 45 e0          	mov    %rax,-0x20(%rbp)
    5c6c:	48 83 7d e0 00       	cmpq   $0x0,-0x20(%rbp)
    5c71:	74 14                	je     5c87 <xQueueTakeMutexRecursive+0x97>
    5c73:	48 8b 45 e8          	mov    -0x18(%rbp),%rax
    5c77:	48 8b 40 18          	mov    0x18(%rax),%rax
    5c7b:	48 8d 50 01          	lea    0x1(%rax),%rdx
    5c7f:	48 8b 45 e8          	mov    -0x18(%rbp),%rax
    5c83:	48 89 50 18          	mov    %rdx,0x18(%rax)
    5c87:	48 8b 45 e0          	mov    -0x20(%rbp),%rax
    5c8b:	48 83 c4 28          	add    $0x28,%rsp
    5c8f:	5b                   	pop    %rbx
    5c90:	5d                   	pop    %rbp
    5c91:	c3                   	retq   

0000000000005c92 <xQueueCreateCountingSemaphoreStatic>:
    5c92:	f3 0f 1e fa          	endbr64 
    5c96:	55                   	push   %rbp
    5c97:	48 89 e5             	mov    %rsp,%rbp
    5c9a:	48 83 ec 30          	sub    $0x30,%rsp
    5c9e:	48 89 7d e8          	mov    %rdi,-0x18(%rbp)
    5ca2:	48 89 75 e0          	mov    %rsi,-0x20(%rbp)
    5ca6:	48 89 55 d8          	mov    %rdx,-0x28(%rbp)
    5caa:	48 c7 45 f8 00 00 00 	movq   $0x0,-0x8(%rbp)
    5cb1:	00 
    5cb2:	48 83 7d e8 00       	cmpq   $0x0,-0x18(%rbp)
    5cb7:	74 46                	je     5cff <xQueueCreateCountingSemaphoreStatic+0x6d>
    5cb9:	48 8b 45 e0          	mov    -0x20(%rbp),%rax
    5cbd:	48 3b 45 e8          	cmp    -0x18(%rbp),%rax
    5cc1:	77 3c                	ja     5cff <xQueueCreateCountingSemaphoreStatic+0x6d>
    5cc3:	48 8b 55 d8          	mov    -0x28(%rbp),%rdx
    5cc7:	48 8b 45 e8          	mov    -0x18(%rbp),%rax
    5ccb:	41 b8 02 00 00 00    	mov    $0x2,%r8d
    5cd1:	48 89 d1             	mov    %rdx,%rcx
    5cd4:	ba 00 00 00 00       	mov    $0x0,%edx
    5cd9:	be 00 00 00 00       	mov    $0x0,%esi
    5cde:	48 89 c7             	mov    %rax,%rdi
    5ce1:	e8 22 f8 ff ff       	callq  5508 <xQueueGenericCreateStatic>
    5ce6:	48 89 45 f8          	mov    %rax,-0x8(%rbp)
    5cea:	48 83 7d f8 00       	cmpq   $0x0,-0x8(%rbp)
    5cef:	74 26                	je     5d17 <xQueueCreateCountingSemaphoreStatic+0x85>
    5cf1:	48 8b 45 f8          	mov    -0x8(%rbp),%rax
    5cf5:	48 8b 55 e0          	mov    -0x20(%rbp),%rdx
    5cf9:	48 89 50 70          	mov    %rdx,0x70(%rax)
    5cfd:	eb 18                	jmp    5d17 <xQueueCreateCountingSemaphoreStatic+0x85>
    5cff:	48 83 7d f8 00       	cmpq   $0x0,-0x8(%rbp)
    5d04:	75 11                	jne    5d17 <xQueueCreateCountingSemaphoreStatic+0x85>
    5d06:	be f8 02 00 00       	mov    $0x2f8,%esi
    5d0b:	48 8d 3d 16 1b 02 00 	lea    0x21b16(%rip),%rdi        # 27828 <_IO_stdin_used+0x828>
    5d12:	e8 f5 df ff ff       	callq  3d0c <vAssertCalled>
    5d17:	48 8b 45 f8          	mov    -0x8(%rbp),%rax
    5d1b:	c9                   	leaveq 
    5d1c:	c3                   	retq   

0000000000005d1d <xQueueCreateCountingSemaphore>:
    5d1d:	f3 0f 1e fa          	endbr64 
    5d21:	55                   	push   %rbp
    5d22:	48 89 e5             	mov    %rsp,%rbp
    5d25:	48 83 ec 20          	sub    $0x20,%rsp
    5d29:	48 89 7d e8          	mov    %rdi,-0x18(%rbp)
    5d2d:	48 89 75 e0          	mov    %rsi,-0x20(%rbp)
    5d31:	48 c7 45 f8 00 00 00 	movq   $0x0,-0x8(%rbp)
    5d38:	00 
    5d39:	48 83 7d e8 00       	cmpq   $0x0,-0x18(%rbp)
    5d3e:	74 39                	je     5d79 <xQueueCreateCountingSemaphore+0x5c>
    5d40:	48 8b 45 e0          	mov    -0x20(%rbp),%rax
    5d44:	48 3b 45 e8          	cmp    -0x18(%rbp),%rax
    5d48:	77 2f                	ja     5d79 <xQueueCreateCountingSemaphore+0x5c>
    5d4a:	48 8b 45 e8          	mov    -0x18(%rbp),%rax
    5d4e:	ba 02 00 00 00       	mov    $0x2,%edx
    5d53:	be 00 00 00 00       	mov    $0x0,%esi
    5d58:	48 89 c7             	mov    %rax,%rdi
    5d5b:	e8 93 f8 ff ff       	callq  55f3 <xQueueGenericCreate>
    5d60:	48 89 45 f8          	mov    %rax,-0x8(%rbp)
    5d64:	48 83 7d f8 00       	cmpq   $0x0,-0x8(%rbp)
    5d69:	74 26                	je     5d91 <xQueueCreateCountingSemaphore+0x74>
    5d6b:	48 8b 45 f8          	mov    -0x8(%rbp),%rax
    5d6f:	48 8b 55 e0          	mov    -0x20(%rbp),%rdx
    5d73:	48 89 50 70          	mov    %rdx,0x70(%rax)
    5d77:	eb 18                	jmp    5d91 <xQueueCreateCountingSemaphore+0x74>
    5d79:	48 83 7d f8 00       	cmpq   $0x0,-0x8(%rbp)
    5d7e:	75 11                	jne    5d91 <xQueueCreateCountingSemaphore+0x74>
    5d80:	be 1b 03 00 00       	mov    $0x31b,%esi
    5d85:	48 8d 3d 9c 1a 02 00 	lea    0x21a9c(%rip),%rdi        # 27828 <_IO_stdin_used+0x828>
    5d8c:	e8 7b df ff ff       	callq  3d0c <vAssertCalled>
    5d91:	48 8b 45 f8          	mov    -0x8(%rbp),%rax
    5d95:	c9                   	leaveq 
    5d96:	c3                   	retq   

0000000000005d97 <xQueueGenericSend>:
    5d97:	f3 0f 1e fa          	endbr64 
    5d9b:	55                   	push   %rbp
    5d9c:	48 89 e5             	mov    %rsp,%rbp
    5d9f:	41 54                	push   %r12
    5da1:	53                   	push   %rbx
    5da2:	48 83 ec 60          	sub    $0x60,%rsp
    5da6:	48 89 7d a8          	mov    %rdi,-0x58(%rbp)
    5daa:	48 89 75 a0          	mov    %rsi,-0x60(%rbp)
    5dae:	48 89 55 98          	mov    %rdx,-0x68(%rbp)
    5db2:	48 89 4d 90          	mov    %rcx,-0x70(%rbp)
    5db6:	64 48 8b 04 25 28 00 	mov    %fs:0x28,%rax
    5dbd:	00 00 
    5dbf:	48 89 45 e8          	mov    %rax,-0x18(%rbp)
    5dc3:	31 c0                	xor    %eax,%eax
    5dc5:	48 c7 45 b0 00 00 00 	movq   $0x0,-0x50(%rbp)
    5dcc:	00 
    5dcd:	48 8b 45 a8          	mov    -0x58(%rbp),%rax
    5dd1:	48 89 45 b8          	mov    %rax,-0x48(%rbp)
    5dd5:	48 83 7d b8 00       	cmpq   $0x0,-0x48(%rbp)
    5dda:	75 11                	jne    5ded <xQueueGenericSend+0x56>
    5ddc:	be 2e 03 00 00       	mov    $0x32e,%esi
    5de1:	48 8d 3d 40 1a 02 00 	lea    0x21a40(%rip),%rdi        # 27828 <_IO_stdin_used+0x828>
    5de8:	e8 1f df ff ff       	callq  3d0c <vAssertCalled>
    5ded:	48 83 7d a0 00       	cmpq   $0x0,-0x60(%rbp)
    5df2:	75 10                	jne    5e04 <xQueueGenericSend+0x6d>
    5df4:	48 8b 45 b8          	mov    -0x48(%rbp),%rax
    5df8:	48 8b 80 80 00 00 00 	mov    0x80(%rax),%rax
    5dff:	48 85 c0             	test   %rax,%rax
    5e02:	75 07                	jne    5e0b <xQueueGenericSend+0x74>
    5e04:	b8 01 00 00 00       	mov    $0x1,%eax
    5e09:	eb 05                	jmp    5e10 <xQueueGenericSend+0x79>
    5e0b:	b8 00 00 00 00       	mov    $0x0,%eax
    5e10:	85 c0                	test   %eax,%eax
    5e12:	75 11                	jne    5e25 <xQueueGenericSend+0x8e>
    5e14:	be 2f 03 00 00       	mov    $0x32f,%esi
    5e19:	48 8d 3d 08 1a 02 00 	lea    0x21a08(%rip),%rdi        # 27828 <_IO_stdin_used+0x828>
    5e20:	e8 e7 de ff ff       	callq  3d0c <vAssertCalled>
    5e25:	48 83 7d 90 02       	cmpq   $0x2,-0x70(%rbp)
    5e2a:	75 0e                	jne    5e3a <xQueueGenericSend+0xa3>
    5e2c:	48 8b 45 b8          	mov    -0x48(%rbp),%rax
    5e30:	48 8b 40 78          	mov    0x78(%rax),%rax
    5e34:	48 83 f8 01          	cmp    $0x1,%rax
    5e38:	75 07                	jne    5e41 <xQueueGenericSend+0xaa>
    5e3a:	b8 01 00 00 00       	mov    $0x1,%eax
    5e3f:	eb 05                	jmp    5e46 <xQueueGenericSend+0xaf>
    5e41:	b8 00 00 00 00       	mov    $0x0,%eax
    5e46:	85 c0                	test   %eax,%eax
    5e48:	75 11                	jne    5e5b <xQueueGenericSend+0xc4>
    5e4a:	be 30 03 00 00       	mov    $0x330,%esi
    5e4f:	48 8d 3d d2 19 02 00 	lea    0x219d2(%rip),%rdi        # 27828 <_IO_stdin_used+0x828>
    5e56:	e8 b1 de ff ff       	callq  3d0c <vAssertCalled>
    5e5b:	e8 37 98 00 00       	callq  f697 <xTaskGetSchedulerState>
    5e60:	48 85 c0             	test   %rax,%rax
    5e63:	75 09                	jne    5e6e <xQueueGenericSend+0xd7>
    5e65:	48 8b 45 98          	mov    -0x68(%rbp),%rax
    5e69:	48 85 c0             	test   %rax,%rax
    5e6c:	75 07                	jne    5e75 <xQueueGenericSend+0xde>
    5e6e:	b8 01 00 00 00       	mov    $0x1,%eax
    5e73:	eb 05                	jmp    5e7a <xQueueGenericSend+0xe3>
    5e75:	b8 00 00 00 00       	mov    $0x0,%eax
    5e7a:	85 c0                	test   %eax,%eax
    5e7c:	75 11                	jne    5e8f <xQueueGenericSend+0xf8>
    5e7e:	be 33 03 00 00       	mov    $0x333,%esi
    5e83:	48 8d 3d 9e 19 02 00 	lea    0x2199e(%rip),%rdi        # 27828 <_IO_stdin_used+0x828>
    5e8a:	e8 7d de ff ff       	callq  3d0c <vAssertCalled>
    5e8f:	e8 3b cf 00 00       	callq  12dcf <vPortEnterCritical>
    5e94:	48 8b 45 b8          	mov    -0x48(%rbp),%rax
    5e98:	48 8b 50 70          	mov    0x70(%rax),%rdx
    5e9c:	48 8b 45 b8          	mov    -0x48(%rbp),%rax
    5ea0:	48 8b 40 78          	mov    0x78(%rax),%rax
    5ea4:	48 39 c2             	cmp    %rax,%rdx
    5ea7:	72 0b                	jb     5eb4 <xQueueGenericSend+0x11d>
    5ea9:	48 83 7d 90 02       	cmpq   $0x2,-0x70(%rbp)
    5eae:	0f 85 b5 01 00 00    	jne    6069 <xQueueGenericSend+0x2d2>
    5eb4:	e8 a3 d7 01 00       	callq  2365c <prvTraceGetCurrentTaskHandle>
    5eb9:	48 89 c7             	mov    %rax,%rdi
    5ebc:	e8 9a d2 01 00       	callq  2315b <prvTraceGetTaskNumberHigh16>
    5ec1:	0f b7 15 14 b2 02 00 	movzwl 0x2b214(%rip),%edx        # 310dc <CurrentFilterMask>
    5ec8:	21 d0                	and    %edx,%eax
    5eca:	66 85 c0             	test   %ax,%ax
    5ecd:	0f 84 85 00 00 00    	je     5f58 <xQueueGenericSend+0x1c1>
    5ed3:	48 8b 45 b8          	mov    -0x48(%rbp),%rax
    5ed7:	48 89 c7             	mov    %rax,%rdi
    5eda:	e8 42 d3 01 00       	callq  23221 <prvTraceGetQueueNumberHigh16>
    5edf:	0f b7 15 f6 b1 02 00 	movzwl 0x2b1f6(%rip),%edx        # 310dc <CurrentFilterMask>
    5ee6:	21 d0                	and    %edx,%eax
    5ee8:	66 85 c0             	test   %ax,%ax
    5eeb:	74 6b                	je     5f58 <xQueueGenericSend+0x1c1>
    5eed:	48 8b 45 b8          	mov    -0x48(%rbp),%rax
    5ef1:	48 89 c7             	mov    %rax,%rdi
    5ef4:	e8 0a d3 01 00       	callq  23203 <prvTraceGetQueueNumberLow16>
    5ef9:	44 0f b6 e0          	movzbl %al,%r12d
    5efd:	48 8b 45 b8          	mov    -0x48(%rbp),%rax
    5f01:	48 89 c7             	mov    %rax,%rdi
    5f04:	e8 16 d2 01 00       	callq  2311f <prvTraceGetQueueType>
    5f09:	0f b6 c0             	movzbl %al,%eax
    5f0c:	48 98                	cltq   
    5f0e:	48 8d 15 bb b1 02 00 	lea    0x2b1bb(%rip),%rdx        # 310d0 <TraceQueueClassTable>
    5f15:	0f b6 04 10          	movzbl (%rax,%rdx,1),%eax
    5f19:	0f b6 d8             	movzbl %al,%ebx
    5f1c:	48 83 7d 90 00       	cmpq   $0x0,-0x70(%rbp)
    5f21:	75 24                	jne    5f47 <xQueueGenericSend+0x1b0>
    5f23:	48 8b 45 b8          	mov    -0x48(%rbp),%rax
    5f27:	48 89 c7             	mov    %rax,%rdi
    5f2a:	e8 f0 d1 01 00       	callq  2311f <prvTraceGetQueueType>
    5f2f:	0f b6 c0             	movzbl %al,%eax
    5f32:	48 98                	cltq   
    5f34:	48 8d 15 95 b1 02 00 	lea    0x2b195(%rip),%rdx        # 310d0 <TraceQueueClassTable>
    5f3b:	0f b6 04 10          	movzbl (%rax,%rdx,1),%eax
    5f3f:	83 c0 20             	add    $0x20,%eax
    5f42:	0f b6 c0             	movzbl %al,%eax
    5f45:	eb 05                	jmp    5f4c <xQueueGenericSend+0x1b5>
    5f47:	b8 25 00 00 00       	mov    $0x25,%eax
    5f4c:	44 89 e2             	mov    %r12d,%edx
    5f4f:	89 de                	mov    %ebx,%esi
    5f51:	89 c7                	mov    %eax,%edi
    5f53:	e8 fa f0 01 00       	callq  25052 <prvTraceStoreKernelCall>
    5f58:	48 8b 45 b8          	mov    -0x48(%rbp),%rax
    5f5c:	48 89 c7             	mov    %rax,%rdi
    5f5f:	e8 bb d1 01 00       	callq  2311f <prvTraceGetQueueType>
    5f64:	0f b6 c0             	movzbl %al,%eax
    5f67:	48 98                	cltq   
    5f69:	48 8d 15 60 b1 02 00 	lea    0x2b160(%rip),%rdx        # 310d0 <TraceQueueClassTable>
    5f70:	0f b6 04 10          	movzbl (%rax,%rdx,1),%eax
    5f74:	3c 02                	cmp    $0x2,%al
    5f76:	74 10                	je     5f88 <xQueueGenericSend+0x1f1>
    5f78:	48 8b 45 b8          	mov    -0x48(%rbp),%rax
    5f7c:	48 8b 40 70          	mov    0x70(%rax),%rax
    5f80:	83 c0 01             	add    $0x1,%eax
    5f83:	0f b6 d8             	movzbl %al,%ebx
    5f86:	eb 05                	jmp    5f8d <xQueueGenericSend+0x1f6>
    5f88:	bb 00 00 00 00       	mov    $0x0,%ebx
    5f8d:	48 8b 45 b8          	mov    -0x48(%rbp),%rax
    5f91:	48 89 c7             	mov    %rax,%rdi
    5f94:	e8 6a d2 01 00       	callq  23203 <prvTraceGetQueueNumberLow16>
    5f99:	44 0f b6 e0          	movzbl %al,%r12d
    5f9d:	48 8b 45 b8          	mov    -0x48(%rbp),%rax
    5fa1:	48 89 c7             	mov    %rax,%rdi
    5fa4:	e8 76 d1 01 00       	callq  2311f <prvTraceGetQueueType>
    5fa9:	0f b6 c0             	movzbl %al,%eax
    5fac:	48 98                	cltq   
    5fae:	48 8d 15 1b b1 02 00 	lea    0x2b11b(%rip),%rdx        # 310d0 <TraceQueueClassTable>
    5fb5:	0f b6 04 10          	movzbl (%rax,%rdx,1),%eax
    5fb9:	0f b6 c0             	movzbl %al,%eax
    5fbc:	89 da                	mov    %ebx,%edx
    5fbe:	44 89 e6             	mov    %r12d,%esi
    5fc1:	89 c7                	mov    %eax,%edi
    5fc3:	e8 c4 f8 01 00       	callq  2588c <prvTraceSetObjectState>
    5fc8:	48 8b 45 b8          	mov    -0x48(%rbp),%rax
    5fcc:	48 8b 40 70          	mov    0x70(%rax),%rax
    5fd0:	48 89 45 c0          	mov    %rax,-0x40(%rbp)
    5fd4:	48 8b 55 90          	mov    -0x70(%rbp),%rdx
    5fd8:	48 8b 4d a0          	mov    -0x60(%rbp),%rcx
    5fdc:	48 8b 45 b8          	mov    -0x48(%rbp),%rax
    5fe0:	48 89 ce             	mov    %rcx,%rsi
    5fe3:	48 89 c7             	mov    %rax,%rdi
    5fe6:	e8 8b 21 00 00       	callq  8176 <prvCopyDataToQueue>
    5feb:	48 89 45 c8          	mov    %rax,-0x38(%rbp)
    5fef:	48 8b 45 b8          	mov    -0x48(%rbp),%rax
    5ff3:	48 8b 80 90 00 00 00 	mov    0x90(%rax),%rax
    5ffa:	48 85 c0             	test   %rax,%rax
    5ffd:	74 26                	je     6025 <xQueueGenericSend+0x28e>
    5fff:	48 83 7d 90 02       	cmpq   $0x2,-0x70(%rbp)
    6004:	75 07                	jne    600d <xQueueGenericSend+0x276>
    6006:	48 83 7d c0 00       	cmpq   $0x0,-0x40(%rbp)
    600b:	75 4d                	jne    605a <xQueueGenericSend+0x2c3>
    600d:	48 8b 45 b8          	mov    -0x48(%rbp),%rax
    6011:	48 89 c7             	mov    %rax,%rdi
    6014:	e8 3b 2a 00 00       	callq  8a54 <prvNotifyQueueSetContainer>
    6019:	48 85 c0             	test   %rax,%rax
    601c:	74 3c                	je     605a <xQueueGenericSend+0x2c3>
    601e:	e8 51 ce 00 00       	callq  12e74 <vPortYield>
    6023:	eb 35                	jmp    605a <xQueueGenericSend+0x2c3>
    6025:	48 8b 45 b8          	mov    -0x48(%rbp),%rax
    6029:	48 8b 40 48          	mov    0x48(%rax),%rax
    602d:	48 85 c0             	test   %rax,%rax
    6030:	74 1c                	je     604e <xQueueGenericSend+0x2b7>
    6032:	48 8b 45 b8          	mov    -0x48(%rbp),%rax
    6036:	48 83 c0 48          	add    $0x48,%rax
    603a:	48 89 c7             	mov    %rax,%rdi
    603d:	e8 2c 89 00 00       	callq  e96e <xTaskRemoveFromEventList>
    6042:	48 85 c0             	test   %rax,%rax
    6045:	74 13                	je     605a <xQueueGenericSend+0x2c3>
    6047:	e8 28 ce 00 00       	callq  12e74 <vPortYield>
    604c:	eb 0c                	jmp    605a <xQueueGenericSend+0x2c3>
    604e:	48 83 7d c8 00       	cmpq   $0x0,-0x38(%rbp)
    6053:	74 05                	je     605a <xQueueGenericSend+0x2c3>
    6055:	e8 1a ce 00 00       	callq  12e74 <vPortYield>
    605a:	e8 9e cd 00 00       	callq  12dfd <vPortExitCritical>
    605f:	b8 01 00 00 00       	mov    $0x1,%eax
    6064:	e9 03 03 00 00       	jmpq   636c <xQueueGenericSend+0x5d5>
    6069:	48 8b 45 98          	mov    -0x68(%rbp),%rax
    606d:	48 85 c0             	test   %rax,%rax
    6070:	0f 85 b3 00 00 00    	jne    6129 <xQueueGenericSend+0x392>
    6076:	e8 82 cd 00 00       	callq  12dfd <vPortExitCritical>
    607b:	e8 dc d5 01 00       	callq  2365c <prvTraceGetCurrentTaskHandle>
    6080:	48 89 c7             	mov    %rax,%rdi
    6083:	e8 d3 d0 01 00       	callq  2315b <prvTraceGetTaskNumberHigh16>
    6088:	0f b7 15 4d b0 02 00 	movzwl 0x2b04d(%rip),%edx        # 310dc <CurrentFilterMask>
    608f:	21 d0                	and    %edx,%eax
    6091:	66 85 c0             	test   %ax,%ax
    6094:	0f 84 85 00 00 00    	je     611f <xQueueGenericSend+0x388>
    609a:	48 8b 45 b8          	mov    -0x48(%rbp),%rax
    609e:	48 89 c7             	mov    %rax,%rdi
    60a1:	e8 7b d1 01 00       	callq  23221 <prvTraceGetQueueNumberHigh16>
    60a6:	0f b7 15 2f b0 02 00 	movzwl 0x2b02f(%rip),%edx        # 310dc <CurrentFilterMask>
    60ad:	21 d0                	and    %edx,%eax
    60af:	66 85 c0             	test   %ax,%ax
    60b2:	74 6b                	je     611f <xQueueGenericSend+0x388>
    60b4:	48 8b 45 b8          	mov    -0x48(%rbp),%rax
    60b8:	48 89 c7             	mov    %rax,%rdi
    60bb:	e8 43 d1 01 00       	callq  23203 <prvTraceGetQueueNumberLow16>
    60c0:	44 0f b6 e0          	movzbl %al,%r12d
    60c4:	48 8b 45 b8          	mov    -0x48(%rbp),%rax
    60c8:	48 89 c7             	mov    %rax,%rdi
    60cb:	e8 4f d0 01 00       	callq  2311f <prvTraceGetQueueType>
    60d0:	0f b6 c0             	movzbl %al,%eax
    60d3:	48 98                	cltq   
    60d5:	48 8d 15 f4 af 02 00 	lea    0x2aff4(%rip),%rdx        # 310d0 <TraceQueueClassTable>
    60dc:	0f b6 04 10          	movzbl (%rax,%rdx,1),%eax
    60e0:	0f b6 d8             	movzbl %al,%ebx
    60e3:	48 83 7d 90 00       	cmpq   $0x0,-0x70(%rbp)
    60e8:	75 24                	jne    610e <xQueueGenericSend+0x377>
    60ea:	48 8b 45 b8          	mov    -0x48(%rbp),%rax
    60ee:	48 89 c7             	mov    %rax,%rdi
    60f1:	e8 29 d0 01 00       	callq  2311f <prvTraceGetQueueType>
    60f6:	0f b6 c0             	movzbl %al,%eax
    60f9:	48 98                	cltq   
    60fb:	48 8d 15 ce af 02 00 	lea    0x2afce(%rip),%rdx        # 310d0 <TraceQueueClassTable>
    6102:	0f b6 04 10          	movzbl (%rax,%rdx,1),%eax
    6106:	83 c0 48             	add    $0x48,%eax
    6109:	0f b6 c0             	movzbl %al,%eax
    610c:	eb 05                	jmp    6113 <xQueueGenericSend+0x37c>
    610e:	b8 4d 00 00 00       	mov    $0x4d,%eax
    6113:	44 89 e2             	mov    %r12d,%edx
    6116:	89 de                	mov    %ebx,%esi
    6118:	89 c7                	mov    %eax,%edi
    611a:	e8 33 ef 01 00       	callq  25052 <prvTraceStoreKernelCall>
    611f:	b8 00 00 00 00       	mov    $0x0,%eax
    6124:	e9 43 02 00 00       	jmpq   636c <xQueueGenericSend+0x5d5>
    6129:	48 83 7d b0 00       	cmpq   $0x0,-0x50(%rbp)
    612e:	75 14                	jne    6144 <xQueueGenericSend+0x3ad>
    6130:	48 8d 45 d0          	lea    -0x30(%rbp),%rax
    6134:	48 89 c7             	mov    %rax,%rdi
    6137:	e8 26 8e 00 00       	callq  ef62 <vTaskInternalSetTimeOutState>
    613c:	48 c7 45 b0 01 00 00 	movq   $0x1,-0x50(%rbp)
    6143:	00 
    6144:	e8 b4 cc 00 00       	callq  12dfd <vPortExitCritical>
    6149:	e8 f3 73 00 00       	callq  d541 <vTaskSuspendAll>
    614e:	e8 7c cc 00 00       	callq  12dcf <vPortEnterCritical>
    6153:	48 8b 45 b8          	mov    -0x48(%rbp),%rax
    6157:	0f b6 80 88 00 00 00 	movzbl 0x88(%rax),%eax
    615e:	3c ff                	cmp    $0xff,%al
    6160:	75 0b                	jne    616d <xQueueGenericSend+0x3d6>
    6162:	48 8b 45 b8          	mov    -0x48(%rbp),%rax
    6166:	c6 80 88 00 00 00 00 	movb   $0x0,0x88(%rax)
    616d:	48 8b 45 b8          	mov    -0x48(%rbp),%rax
    6171:	0f b6 80 89 00 00 00 	movzbl 0x89(%rax),%eax
    6178:	3c ff                	cmp    $0xff,%al
    617a:	75 0b                	jne    6187 <xQueueGenericSend+0x3f0>
    617c:	48 8b 45 b8          	mov    -0x48(%rbp),%rax
    6180:	c6 80 89 00 00 00 00 	movb   $0x0,0x89(%rax)
    6187:	e8 71 cc 00 00       	callq  12dfd <vPortExitCritical>
    618c:	48 8d 55 98          	lea    -0x68(%rbp),%rdx
    6190:	48 8d 45 d0          	lea    -0x30(%rbp),%rax
    6194:	48 89 d6             	mov    %rdx,%rsi
    6197:	48 89 c7             	mov    %rax,%rdi
    619a:	e8 ef 8d 00 00       	callq  ef8e <xTaskCheckForTimeOut>
    619f:	48 85 c0             	test   %rax,%rax
    61a2:	0f 85 0a 01 00 00    	jne    62b2 <xQueueGenericSend+0x51b>
    61a8:	48 8b 45 b8          	mov    -0x48(%rbp),%rax
    61ac:	48 89 c7             	mov    %rax,%rdi
    61af:	e8 60 23 00 00       	callq  8514 <prvIsQueueFull>
    61b4:	48 85 c0             	test   %rax,%rax
    61b7:	0f 84 df 00 00 00    	je     629c <xQueueGenericSend+0x505>
    61bd:	e8 9a d4 01 00       	callq  2365c <prvTraceGetCurrentTaskHandle>
    61c2:	48 89 c7             	mov    %rax,%rdi
    61c5:	e8 91 cf 01 00       	callq  2315b <prvTraceGetTaskNumberHigh16>
    61ca:	0f b7 15 0b af 02 00 	movzwl 0x2af0b(%rip),%edx        # 310dc <CurrentFilterMask>
    61d1:	21 d0                	and    %edx,%eax
    61d3:	66 85 c0             	test   %ax,%ax
    61d6:	0f 84 85 00 00 00    	je     6261 <xQueueGenericSend+0x4ca>
    61dc:	48 8b 45 b8          	mov    -0x48(%rbp),%rax
    61e0:	48 89 c7             	mov    %rax,%rdi
    61e3:	e8 39 d0 01 00       	callq  23221 <prvTraceGetQueueNumberHigh16>
    61e8:	0f b7 15 ed ae 02 00 	movzwl 0x2aeed(%rip),%edx        # 310dc <CurrentFilterMask>
    61ef:	21 d0                	and    %edx,%eax
    61f1:	66 85 c0             	test   %ax,%ax
    61f4:	74 6b                	je     6261 <xQueueGenericSend+0x4ca>
    61f6:	48 8b 45 b8          	mov    -0x48(%rbp),%rax
    61fa:	48 89 c7             	mov    %rax,%rdi
    61fd:	e8 01 d0 01 00       	callq  23203 <prvTraceGetQueueNumberLow16>
    6202:	44 0f b6 e0          	movzbl %al,%r12d
    6206:	48 8b 45 b8          	mov    -0x48(%rbp),%rax
    620a:	48 89 c7             	mov    %rax,%rdi
    620d:	e8 0d cf 01 00       	callq  2311f <prvTraceGetQueueType>
    6212:	0f b6 c0             	movzbl %al,%eax
    6215:	48 98                	cltq   
    6217:	48 8d 15 b2 ae 02 00 	lea    0x2aeb2(%rip),%rdx        # 310d0 <TraceQueueClassTable>
    621e:	0f b6 04 10          	movzbl (%rax,%rdx,1),%eax
    6222:	0f b6 d8             	movzbl %al,%ebx
    6225:	48 83 7d 90 00       	cmpq   $0x0,-0x70(%rbp)
    622a:	75 24                	jne    6250 <xQueueGenericSend+0x4b9>
    622c:	48 8b 45 b8          	mov    -0x48(%rbp),%rax
    6230:	48 89 c7             	mov    %rax,%rdi
    6233:	e8 e7 ce 01 00       	callq  2311f <prvTraceGetQueueType>
    6238:	0f b6 c0             	movzbl %al,%eax
    623b:	48 98                	cltq   
    623d:	48 8d 15 8c ae 02 00 	lea    0x2ae8c(%rip),%rdx        # 310d0 <TraceQueueClassTable>
    6244:	0f b6 04 10          	movzbl (%rax,%rdx,1),%eax
    6248:	83 c0 70             	add    $0x70,%eax
    624b:	0f b6 c0             	movzbl %al,%eax
    624e:	eb 05                	jmp    6255 <xQueueGenericSend+0x4be>
    6250:	b8 75 00 00 00       	mov    $0x75,%eax
    6255:	44 89 e2             	mov    %r12d,%edx
    6258:	89 de                	mov    %ebx,%esi
    625a:	89 c7                	mov    %eax,%edi
    625c:	e8 f1 ed 01 00       	callq  25052 <prvTraceStoreKernelCall>
    6261:	48 8b 45 98          	mov    -0x68(%rbp),%rax
    6265:	48 8b 55 b8          	mov    -0x48(%rbp),%rdx
    6269:	48 83 c2 20          	add    $0x20,%rdx
    626d:	48 89 c6             	mov    %rax,%rsi
    6270:	48 89 d7             	mov    %rdx,%rdi
    6273:	e8 5d 84 00 00       	callq  e6d5 <vTaskPlaceOnEventList>
    6278:	48 8b 45 b8          	mov    -0x48(%rbp),%rax
    627c:	48 89 c7             	mov    %rax,%rdi
    627f:	e8 03 21 00 00       	callq  8387 <prvUnlockQueue>
    6284:	e8 d5 72 00 00       	callq  d55e <xTaskResumeAll>
    6289:	48 85 c0             	test   %rax,%rax
    628c:	0f 85 fd fb ff ff    	jne    5e8f <xQueueGenericSend+0xf8>
    6292:	e8 dd cb 00 00       	callq  12e74 <vPortYield>
    6297:	e9 f3 fb ff ff       	jmpq   5e8f <xQueueGenericSend+0xf8>
    629c:	48 8b 45 b8          	mov    -0x48(%rbp),%rax
    62a0:	48 89 c7             	mov    %rax,%rdi
    62a3:	e8 df 20 00 00       	callq  8387 <prvUnlockQueue>
    62a8:	e8 b1 72 00 00       	callq  d55e <xTaskResumeAll>
    62ad:	e9 dd fb ff ff       	jmpq   5e8f <xQueueGenericSend+0xf8>
    62b2:	48 8b 45 b8          	mov    -0x48(%rbp),%rax
    62b6:	48 89 c7             	mov    %rax,%rdi
    62b9:	e8 c9 20 00 00       	callq  8387 <prvUnlockQueue>
    62be:	e8 9b 72 00 00       	callq  d55e <xTaskResumeAll>
    62c3:	e8 94 d3 01 00       	callq  2365c <prvTraceGetCurrentTaskHandle>
    62c8:	48 89 c7             	mov    %rax,%rdi
    62cb:	e8 8b ce 01 00       	callq  2315b <prvTraceGetTaskNumberHigh16>
    62d0:	0f b7 15 05 ae 02 00 	movzwl 0x2ae05(%rip),%edx        # 310dc <CurrentFilterMask>
    62d7:	21 d0                	and    %edx,%eax
    62d9:	66 85 c0             	test   %ax,%ax
    62dc:	0f 84 85 00 00 00    	je     6367 <xQueueGenericSend+0x5d0>
    62e2:	48 8b 45 b8          	mov    -0x48(%rbp),%rax
    62e6:	48 89 c7             	mov    %rax,%rdi
    62e9:	e8 33 cf 01 00       	callq  23221 <prvTraceGetQueueNumberHigh16>
    62ee:	0f b7 15 e7 ad 02 00 	movzwl 0x2ade7(%rip),%edx        # 310dc <CurrentFilterMask>
    62f5:	21 d0                	and    %edx,%eax
    62f7:	66 85 c0             	test   %ax,%ax
    62fa:	74 6b                	je     6367 <xQueueGenericSend+0x5d0>
    62fc:	48 8b 45 b8          	mov    -0x48(%rbp),%rax
    6300:	48 89 c7             	mov    %rax,%rdi
    6303:	e8 fb ce 01 00       	callq  23203 <prvTraceGetQueueNumberLow16>
    6308:	44 0f b6 e0          	movzbl %al,%r12d
    630c:	48 8b 45 b8          	mov    -0x48(%rbp),%rax
    6310:	48 89 c7             	mov    %rax,%rdi
    6313:	e8 07 ce 01 00       	callq  2311f <prvTraceGetQueueType>
    6318:	0f b6 c0             	movzbl %al,%eax
    631b:	48 98                	cltq   
    631d:	48 8d 15 ac ad 02 00 	lea    0x2adac(%rip),%rdx        # 310d0 <TraceQueueClassTable>
    6324:	0f b6 04 10          	movzbl (%rax,%rdx,1),%eax
    6328:	0f b6 d8             	movzbl %al,%ebx
    632b:	48 83 7d 90 00       	cmpq   $0x0,-0x70(%rbp)
    6330:	75 24                	jne    6356 <xQueueGenericSend+0x5bf>
    6332:	48 8b 45 b8          	mov    -0x48(%rbp),%rax
    6336:	48 89 c7             	mov    %rax,%rdi
    6339:	e8 e1 cd 01 00       	callq  2311f <prvTraceGetQueueType>
    633e:	0f b6 c0             	movzbl %al,%eax
    6341:	48 98                	cltq   
    6343:	48 8d 15 86 ad 02 00 	lea    0x2ad86(%rip),%rdx        # 310d0 <TraceQueueClassTable>
    634a:	0f b6 04 10          	movzbl (%rax,%rdx,1),%eax
    634e:	83 c0 48             	add    $0x48,%eax
    6351:	0f b6 c0             	movzbl %al,%eax
    6354:	eb 05                	jmp    635b <xQueueGenericSend+0x5c4>
    6356:	b8 4d 00 00 00       	mov    $0x4d,%eax
    635b:	44 89 e2             	mov    %r12d,%edx
    635e:	89 de                	mov    %ebx,%esi
    6360:	89 c7                	mov    %eax,%edi
    6362:	e8 eb ec 01 00       	callq  25052 <prvTraceStoreKernelCall>
    6367:	b8 00 00 00 00       	mov    $0x0,%eax
    636c:	48 8b 4d e8          	mov    -0x18(%rbp),%rcx
    6370:	64 48 33 0c 25 28 00 	xor    %fs:0x28,%rcx
    6377:	00 00 
    6379:	74 05                	je     6380 <xQueueGenericSend+0x5e9>
    637b:	e8 50 c1 ff ff       	callq  24d0 <__stack_chk_fail@plt>
    6380:	48 83 c4 60          	add    $0x60,%rsp
    6384:	5b                   	pop    %rbx
    6385:	41 5c                	pop    %r12
    6387:	5d                   	pop    %rbp
    6388:	c3                   	retq   

0000000000006389 <xQueueGenericSendFromISR>:
    6389:	f3 0f 1e fa          	endbr64 
    638d:	55                   	push   %rbp
    638e:	48 89 e5             	mov    %rsp,%rbp
    6391:	41 54                	push   %r12
    6393:	53                   	push   %rbx
    6394:	48 83 ec 50          	sub    $0x50,%rsp
    6398:	48 89 7d b8          	mov    %rdi,-0x48(%rbp)
    639c:	48 89 75 b0          	mov    %rsi,-0x50(%rbp)
    63a0:	48 89 55 a8          	mov    %rdx,-0x58(%rbp)
    63a4:	48 89 4d a0          	mov    %rcx,-0x60(%rbp)
    63a8:	48 8b 45 b8          	mov    -0x48(%rbp),%rax
    63ac:	48 89 45 d8          	mov    %rax,-0x28(%rbp)
    63b0:	48 83 7d d8 00       	cmpq   $0x0,-0x28(%rbp)
    63b5:	75 11                	jne    63c8 <xQueueGenericSendFromISR+0x3f>
    63b7:	be 02 04 00 00       	mov    $0x402,%esi
    63bc:	48 8d 3d 65 14 02 00 	lea    0x21465(%rip),%rdi        # 27828 <_IO_stdin_used+0x828>
    63c3:	e8 44 d9 ff ff       	callq  3d0c <vAssertCalled>
    63c8:	48 83 7d b0 00       	cmpq   $0x0,-0x50(%rbp)
    63cd:	75 10                	jne    63df <xQueueGenericSendFromISR+0x56>
    63cf:	48 8b 45 d8          	mov    -0x28(%rbp),%rax
    63d3:	48 8b 80 80 00 00 00 	mov    0x80(%rax),%rax
    63da:	48 85 c0             	test   %rax,%rax
    63dd:	75 07                	jne    63e6 <xQueueGenericSendFromISR+0x5d>
    63df:	b8 01 00 00 00       	mov    $0x1,%eax
    63e4:	eb 05                	jmp    63eb <xQueueGenericSendFromISR+0x62>
    63e6:	b8 00 00 00 00       	mov    $0x0,%eax
    63eb:	85 c0                	test   %eax,%eax
    63ed:	75 11                	jne    6400 <xQueueGenericSendFromISR+0x77>
    63ef:	be 03 04 00 00       	mov    $0x403,%esi
    63f4:	48 8d 3d 2d 14 02 00 	lea    0x2142d(%rip),%rdi        # 27828 <_IO_stdin_used+0x828>
    63fb:	e8 0c d9 ff ff       	callq  3d0c <vAssertCalled>
    6400:	48 83 7d a0 02       	cmpq   $0x2,-0x60(%rbp)
    6405:	75 0e                	jne    6415 <xQueueGenericSendFromISR+0x8c>
    6407:	48 8b 45 d8          	mov    -0x28(%rbp),%rax
    640b:	48 8b 40 78          	mov    0x78(%rax),%rax
    640f:	48 83 f8 01          	cmp    $0x1,%rax
    6413:	75 07                	jne    641c <xQueueGenericSendFromISR+0x93>
    6415:	b8 01 00 00 00       	mov    $0x1,%eax
    641a:	eb 05                	jmp    6421 <xQueueGenericSendFromISR+0x98>
    641c:	b8 00 00 00 00       	mov    $0x0,%eax
    6421:	85 c0                	test   %eax,%eax
    6423:	75 11                	jne    6436 <xQueueGenericSendFromISR+0xad>
    6425:	be 04 04 00 00       	mov    $0x404,%esi
    642a:	48 8d 3d f7 13 02 00 	lea    0x213f7(%rip),%rdi        # 27828 <_IO_stdin_used+0x828>
    6431:	e8 d6 d8 ff ff       	callq  3d0c <vAssertCalled>
    6436:	e8 95 ca 00 00       	callq  12ed0 <xPortSetInterruptMask>
    643b:	48 89 45 e0          	mov    %rax,-0x20(%rbp)
    643f:	48 8b 45 d8          	mov    -0x28(%rbp),%rax
